(dp1
S'\x83'
I96
sS'\x87'
I51
sS'\x8b'
I149
sS'\x8f'
I76
sS'\x93'
I90
sS'\x97'
I111
sS'\x9b'
I127
sS'\x9f'
I116
sS' '
I2
sS'\xa3'
I79
sS'$'
I5
sS'\xa7'
I112
sS'('
I36
sS'\xab'
I62
sS','
I56
sS'\xaf'
I103
sS'0'
I38
sS'\xb3'
I47
sS'4'
I37
sS'\xb7'
I133
sS'8'
I54
sS'\xbb'
I70
sS'<'
I136
sS'\xbf'
I71
sS'@'
I3
sS'\xc3'
I34
sS'\xcf'
I132
sS'\\'
I129
sS'`'
I159
sS'\xe3'
I92
sS'd'
I14
sS'\xe7'
I156
sS'h'
I23
sS'\xeb'
I146
sS'l'
I19
sS'\xef'
I94
sS'p'
I6
sS't'
I11
sS'x'
I31
sS'|'
I140
sS'\x80'
I86
sS'\x84'
I122
sS'\x88'
I102
sS'\x8c'
I93
sS'\x90'
I141
sS'\x94'
I119
sS'\x98'
I109
sS'\x9c'
I87
sS'\xa0'
I124
sS'#'
I4
sS'\xa4'
I115
sS"'"
I53
sS'\xa8'
I89
sS'+'
I59
sS'\xac'
I134
sS'/'
I30
sS'\xb0'
I73
sS'3'
I44
sS'\xb4'
I66
sS'7'
I43
sS'\xb8'
I74
sS';'
I130
sS'\xbc'
I35
sS'?'
I110
sS'\xc4'
I50
sS'\xc8'
I82
sS'\xcc'
I144
sS'\xd0'
I63
sS'['
I107
sS'_'
I138
sS'c'
I9
sS'\xe4'
I161
sS'g'
I16
sS'\xe8'
I153
sS'k'
I24
sS'\xec'
I145
sS'o'
I12
sS's'
I8
sS'w'
I26
sS'{'
I105
sS'\x81'
I69
sS'\x85'
I77
sS'\x89'
I101
sS'\n'
I45
sS'\x8d'
I97
sS'\x91'
I114
sS'\x95'
I160
sS'\x99'
I83
sS'\x9d'
I88
sS'\xa1'
I81
sS'"'
I60
sS'\xa5'
I113
sS'&'
I58
sS'\xa9'
I78
sS'*'
I131
sS'\xad'
I104
sS'.'
I28
sS'\xb1'
I91
sS'2'
I39
sS'\xb5'
I67
sS'6'
I49
sS'\xb9'
I139
sS':'
I29
sS'\xbd'
I75
sS'>'
I137
sS'\xc5'
I80
sS'\xc9'
I143
sS'\xd1'
I68
sS'^'
I155
sS'\xe1'
I150
sS'b'
I21
sS'\xe5'
I157
sS'f'
I32
sS'\xe9'
I154
sS'j'
I33
sS'\xed'
I147
sS'n'
I13
sS'r'
I7
sS'v'
I20
sS'z'
I25
sS'~'
I125
sS'\x82'
I72
sS'\x86'
I135
sS'\x8a'
I99
sS'\x8e'
I151
sS'\x92'
I158
sS'\x96'
I120
sS'\x9a'
I64
sS'\x9e'
I95
sS'!'
I52
sS'\xa2'
I118
sS'%'
I117
sS'\xa6'
I100
sS')'
I40
sS'\xaa'
I98
sS'-'
I46
sS'\xae'
I128
sS'1'
I41
sS'\xb2'
I123
sS'5'
I48
sS'\xb6'
I84
sS'9'
I42
sS'\xba'
I55
sS'='
I57
sS'\xbe'
I65
sS'\xc2'
I61
sS'\xc6'
I126
sS'\xca'
I142
sS'\xce'
I121
sS']'
I108
sS'a'
I18
sS'\xe2'
I85
sS'e'
I1
sS'\xe6'
I152
sS'i'
I10
sS'\xea'
I148
sS'm'
I17
sS'q'
I27
sS'u'
I15
sS'y'
I22
sS'}'
I106
s.