(dp1
S''
I2
sS'party1'
p2
I3128
sS'bidding'
p3
I2033
sS'childern'
p4
I3514
sS'spencermountain'
p5
I1300
sS'magnetic'
p6
I3247
sS'opposites'
p7
I3589
sS'colleges'
p8
I1761
sS'dynasty'
p9
I1113
sS'facilities'
p10
I4357
sS'prefix'
p11
I1387
sS'sbsummer'
p12
I916
sS'homage'
p13
I4497
sS'captain'
p14
I1466
sS'veux'
p15
I4375
sS'worked'
p16
I2510
sS'phenotypic'
p17
I2991
sS'relationships'
p18
I2856
sS'votes'
p19
I4510
sS'therapeutics'
p20
I3018
sS'zanerokklyn'
p21
I3489
sS'hauntedplaces'
p22
I1021
sS'granting'
p23
I439
sS'caddie'
p24
I3595
sS'segments'
p25
I1661
sS'disability'
p26
I1193
sS'adjoin'
p27
I4096
sS'ciudades'
p28
I3054
sS'nightclubs'
p29
I4519
sS'mate'
p30
I2149
sS'upload'
p31
I3498
sS'pvonstackelberg'
p32
I1364
sS'master'
p33
I3462
sS'derivation2'
p34
I3883
sS'slowest'
p35
I4509
sS'artmetadata'
p36
I194
sS'replica'
p37
I4910
sS'jewlib'
p38
I727
sS'goodrelations'
p39
I1593
sS'asteroids'
p40
I4757
sS'risk'
p41
I3319
sS'geology'
p42
I764
sS'prefectures'
p43
I935
sS'railways'
p44
I843
sS'connects'
p45
I3778
sS'homes'
p46
I3453
sS'braziliangovt'
p47
I2998
sS'jack'
p48
I327
sS'microbe'
p49
I2163
sS'classifications'
p50
I2368
sS'electronics'
p51
I4547
sS'look'
p52
I2173
sS'sblom'
p53
I4758
sS'school'
p54
I293
sS'prize'
p55
I3256
sS'naturalist'
p56
I3178
sS'skills'
p57
I522
sS'supports'
p58
I2137
sS'clientele'
p59
I2896
sS'companies'
p60
I87
sS'protest'
p61
I2026
sS'integrated'
p62
I3687
sS'specialties'
p63
I1913
sS'delegate'
p64
I1035
sS'soundtracks'
p65
I2498
sS'employees'
p66
I2683
sS'shows'
p67
I3295
sS'cms'
p68
I3243
sS'heading'
p69
I4403
sS'ajain'
p70
I3118
sS'animemanga'
p71
I1102
sS'maximumnj15'
p72
I790
sS'bicycle'
p73
I369
sS'leaders'
p74
I2877
sS'disciplines'
p75
I1564
sS'ivanwong'
p76
I4277
sS'phones'
p77
I897
sS'fit'
p78
I3650
sS'recoveryact'
p79
I621
sS'direct'
p80
I4466
sS'horn'
p81
I3786
sS'chef'
p82
I423
sS'frakilk'
p83
I1655
sS'second'
p84
I2144
sS'street'
p85
I911
sS'eurovision'
p86
I1155
sS'estimated'
p87
I2688
sS'superforms'
p88
I4616
sS'machines'
p89
I3761
sS'theory'
p90
I106
sS'established'
p91
I2708
sS'arielb'
p92
I1676
sS'preferences'
p93
I3451
sS'organisms'
p94
I3929
sS'incompatible'
p95
I1320
sS'specification'
p96
I3306
sS'beaten'
p97
I3200
sS'chriseppstein'
p98
I1225
sS'torchbearer'
p99
I4926
sS'bro'
p100
I4702
sS'liberated'
p101
I1760
sS'coasters'
p102
I3267
sS'fossil'
p103
I2742
sS'cars'
p104
I1613
sS'supplier'
p105
I4054
sS'new'
p106
I179
sS'net'
p107
I2371
sS'disney'
p108
I3360
sS'metadata'
p109
I768
sS'centric'
p110
I1940
sS'hero'
p111
I1205
sS'classiccars'
p112
I3635
sS'reporter'
p113
I2674
sS'herb'
p114
I4303
sS'never'
p115
I4406
sS'here'
p116
I545
sS'reported'
p117
I1015
sS'studio'
p118
I1306
sS'isotope'
p119
I1725
sS'active'
p120
I2552
sS'affiliated'
p121
I731
sS'birdconservation'
p122
I4385
sS'diagnostic'
p123
I3506
sS'celebration'
p124
I1209
sS'dry'
p125
I3735
sS'livemusic'
p126
I1220
sS'substance'
p127
I157
sS'mechanic'
p128
I4628
sS'sectors'
p129
I4269
sS'items'
p130
I1813
sS'study'
p131
I569
sS'economics'
p132
I333
sS'piercing'
p133
I1322
sS'reports'
p134
I678
sS'museums'
p135
I3117
sS'saint'
p136
I2464
sS'menu'
p137
I2245
sS'dedicator'
p138
I4635
sS'browsing'
p139
I3848
sS'military'
p140
I889
sS'couple'
p141
I3245
sS'suitable'
p142
I1636
sS'changes'
p143
I1909
sS'abused'
p144
I4687
sS'golden'
p145
I2386
sS'offs'
p146
I2614
sS'fragrances'
p147
I3412
sS'projection'
p148
I1187
sS'classification'
p149
I244
sS'ground'
p150
I1662
sS'periodicals'
p151
I2071
sS'menubase'
p152
I3751
sS'explained'
p153
I4106
sS'championship1'
p154
I3920
sS'natural'
p155
I2299
sS'county'
p156
I359
sS'conflicts'
p157
I1758
sS'pyramid'
p158
I1413
sS'moral'
p159
I2954
sS'guests'
p160
I2868
sS'broadcasters'
p161
I3272
sS'datasets'
p162
I4531
sS'ndunham'
p163
I2048
sS'unit'
p164
I502
sS'opponents'
p165
I3746
sS'standardizedtesting'
p166
I3468
sS'marketers'
p167
I2405
sS'army'
p168
I4580
sS'commissioned'
p169
I3081
sS'marine'
p170
I2115
sS'hospital'
p171
I1526
sS'played'
p172
I2113
sS'arms'
p173
I441
sS'insult'
p174
I1585
sS'ndbcd'
p175
I3597
sS'beefbase'
p176
I3484
sS'bike'
p177
I4048
sS'music'
p178
I39
sS'asset'
p179
I956
sS'type'
p180
I43
sS'annotations'
p181
I1610
sS'voted'
p182
I4923
sS'main'
p183
I1709
sS'supporters'
p184
I107
sS'relay'
p185
I3678
sS'maximilianschich'
p186
I572
sS'adultentertainment'
p187
I2222
sS'oscar'
p188
I3615
sS'under'
p189
I4911
sS'infusion'
p190
I2547
sS'award'
p191
I1270
sS'accessories'
p192
I2933
sS'phone'
p193
I898
sS'championships'
p194
I891
sS'adult'
p195
I2223
sS'chartering'
p196
I1870
sS'inhabited'
p197
I811
sS'casualties'
p198
I2184
sS'squad'
p199
I2860
sS'circumstances'
p200
I3091
sS'verticals'
p201
I1446
sS'olet'
p202
I3242
sS'morally'
p203
I2955
sS'word'
p204
I695
sS'room'
p205
I2146
sS'rights'
p206
I1408
sS'mm'
p207
I3685
sS'homepage'
p208
I2829
sS'work'
p209
I5
sS'reads'
p210
I4308
sS'advocacy'
p211
I3572
sS'theories'
p212
I26
sS'mt'
p213
I112
sS'era'
p214
I1950
sS'foliage'
p215
I3593
sS'concepts'
p216
I25
sS'torchbearers'
p217
I2402
sS'my'
p218
I1754
sS'mx'
p219
I330
sS'piers'
p220
I2611
sS'yge'
p221
I766
sS'listings'
p222
I2300
sS'estate'
p223
I793
sS'cited'
p224
I2105
sS'organized'
p225
I1200
sS'imprisoned'
p226
I3155
sS'implementations'
p227
I4716
sS'disparagement'
p228
I3509
sS'gadgets'
p229
I784
sS'currency'
p230
I500
sS'foods'
p231
I3894
sS'yarn'
p232
I2152
sS'point'
p233
I4661
sS'counseling'
p234
I494
sS'organizer'
p235
I3837
sS'skipper'
p236
I3697
sS'rescue'
p237
I4287
sS'ceremony'
p238
I2084
sS'aging'
p239
I2509
sS'end'
p240
I1583
sS'recovery'
p241
I622
sS'carriers'
p242
I4189
sS'travel'
p243
I202
sS'leaflet'
p244
I3700
sS'feature'
p245
I577
sS'comedians'
p246
I2366
sS'boroughs'
p247
I1074
sS'machine'
p248
I2170
sS'how'
p249
I2757
sS'hot'
p250
I2426
sS'writers'
p251
I4081
sS'accusations'
p252
I2022
sS'significance'
p253
I1001
sS'boats'
p254
I650
sS'config'
p255
I4898
sS'aggressive'
p256
I4585
sS'dialect'
p257
I3391
sS'poker'
p258
I1425
sS'regional'
p259
I1835
sS'moisteh'
p260
I4389
sS'minority'
p261
I691
sS'beauty'
p262
I3432
sS'modulation'
p263
I1590
sS'thermodynamic'
p264
I2415
sS'after'
p265
I36
sS'containing'
p266
I2618
sS'lotteries'
p267
I3401
sS'preceded'
p268
I4534
sS'diagram'
p269
I3763
sS'routes'
p270
I2377
sS'ova'
p271
I1429
sS'discovering'
p272
I4184
sS'president'
p273
I1818
sS'law'
p274
I602
sS'antonym'
p275
I3976
sS'types'
p276
I22
sS'bottler'
p277
I436
sS'kwebbase'
p278
I739
sS'purchase'
p279
I1904
sS'retail'
p280
I2016
sS'sparql'
p281
I1588
sS'effective'
p282
I2448
sS'headphones'
p283
I3078
sS'claimant'
p284
I4043
sS'americancomedy'
p285
I1944
sS'benstiglitz'
p286
I4666
sS'scottishclans'
p287
I4282
sS'eliminated'
p288
I4313
sS'headquarters'
p289
I1702
sS'fictional'
p290
I257
sS'signatories'
p291
I3094
sS'greek'
p292
I1202
sS'complexity'
p293
I2959
sS'rogue'
p294
I4932
sS'algorithms'
p295
I3228
sS'ultimate'
p296
I3725
sS'capitalist'
p297
I4433
sS'correlation'
p298
I3942
sS'bibliostuff'
p299
I264
sS'cpu'
p300
I4084
sS'athletes'
p301
I457
sS'order'
p302
I2039
sS'wind'
p303
I4315
sS'wine'
p304
I310
sS'fifa'
p305
I1453
sS'restriction'
p306
I1319
sS'salon'
p307
I3527
sS'executed'
p308
I2865
sS'office'
p309
I604
sS'deck'
p310
I2030
sS'dishonor'
p311
I4819
sS'abilities'
p312
I3537
sS'presence'
p313
I4582
sS'dwts'
p314
I3201
sS'london'
p315
I1991
sS'concurrency'
p316
I4293
sS'innovative'
p317
I3197
sS'scopelevel'
p318
I4566
sS'introduced'
p319
I3588
sS'patronized'
p320
I4108
sS'mayor'
p321
I4558
sS'personae'
p322
I4928
sS'oclbase'
p323
I2120
sS'destroyer'
p324
I3525
sS'personal'
p325
I413
sS'recreational'
p326
I2221
sS'borned'
p327
I4080
sS'musicalstyle'
p328
I4848
sS'exhibits'
p329
I1561
sS'crew'
p330
I560
sS'destroyed'
p331
I771
sS'signatory'
p332
I2325
sS'uoa'
p333
I939
sS'production'
p334
I1304
sS'duketip'
p335
I2975
sS'hidden'
p336
I3764
sS'holonyms'
p337
I4105
sS'adhesives'
p338
I4784
sS'uol'
p339
I2049
sS'freak'
p340
I4626
sS'semanticnames'
p341
I4060
sS'coffee'
p342
I4824
sS'affected'
p343
I91
sS'tourist'
p344
I485
sS'weakness'
p345
I2760
sS'pjf'
p346
I3104
sS'metering'
p347
I3395
sS'break'
p348
I4742
sS'band'
p349
I168
sS'therapy'
p350
I4739
sS'effects'
p351
I3662
sS'plates'
p352
I4697
sS'schools'
p353
I2238
sS'certifies'
p354
I4249
sS'godchild'
p355
I3875
sS'silver'
p356
I1050
sS'bank'
p357
I3971
sS'structural'
p358
I2878
sS'suicide'
p359
I2770
sS'grammar'
p360
I4233
sS'meat'
p361
I3485
sS'oxygen'
p362
I2164
sS'privileging'
p363
I1525
sS'inventory'
p364
I3416
sS'fonts'
p365
I2802
sS'arrested'
p366
I4921
sS'arrestee'
p367
I3157
sS'battlestargalactica'
p368
I525
sS'mob'
p369
I4289
sS'affiliate'
p370
I410
sS'prerequisite'
p371
I3897
sS'fitness'
p372
I4358
sS'mounts'
p373
I4258
sS'collectable'
p374
I3048
sS'feeds'
p375
I2557
sS'side'
p376
I84
sS'bond'
p377
I671
sS'burial'
p378
I4606
sS'subspecialty'
p379
I1650
sS'schemes'
p380
I4671
sS'financial'
p381
I837
sS'suspended'
p382
I1804
sS'jasso'
p383
I3832
sS'series'
p384
I136
sS'crimes'
p385
I1640
sS'bearded'
p386
I4625
sS'solution'
p387
I2929
sS'hairstyles'
p388
I1629
sS'conductance'
p389
I4292
sS'strips'
p390
I208
sS'trading'
p391
I1107
sS'hosted'
p392
I169
sS'navy'
p393
I4476
sS'lawyers'
p394
I3097
sS'ghosts'
p395
I3601
sS'collector'
p396
I3542
sS'sounds'
p397
I2075
sS'ru'
p398
I1140
sS'jesswoot'
p399
I2097
sS'rp'
p400
I3865
sS'network'
p401
I223
sS'giladgoren'
p402
I3523
sS'forts'
p403
I4656
sS'borrowed'
p404
I3803
sS'pokemon'
p405
I2217
sS'dst'
p406
I2271
sS'cameras'
p407
I1328
sS'comissioned'
p408
I2119
sS'timers'
p409
I3768
sS'vessels'
p410
I601
sS'fellows'
p411
I2913
sS'content'
p412
I45
sS'adhesion'
p413
I4783
sS'laid'
p414
I3711
sS'vector'
p415
I2067
sS'arrests'
p416
I4636
sS'banning'
p417
I302
sS'reader'
p418
I3442
sS'plutoids'
p419
I862
sS'authorizing'
p420
I4073
sS'dsd'
p421
I1741
sS'size'
p422
I420
sS'angiexiayin'
p423
I4565
sS'occurs'
p424
I4478
sS'visted'
p425
I3130
sS'disputed'
p426
I189
sS'barrier'
p427
I4128
sS'qualifications'
p428
I1929
sS'fugitive'
p429
I3652
sS'standard'
p430
I119
sS'campaigns'
p431
I1078
sS'appointments'
p432
I3748
sS'disputes'
p433
I4263
sS'formation'
p434
I2314
sS'directionality'
p435
I4140
sS'podcaster'
p436
I4046
sS'estimate'
p437
I2342
sS'gameplay'
p438
I2417
sS'telescopes'
p439
I3089
sS'certified'
p440
I3293
sS'appointees'
p441
I4205
sS'incorporates'
p442
I2420
sS'biofluid'
p443
I4351
sS'equine'
p444
I2907
sS'created'
p445
I1210
sS'hull'
p446
I2930
sS'javafx'
p447
I1690
sS'days'
p448
I2418
sS'filter'
p449
I237
sS'bears'
p450
I4260
sS'demo1'
p451
I2523
sS'iso'
p452
I1134
sS'competed'
p453
I2470
sS'fought'
p454
I3072
sS'kingdom'
p455
I1656
sS'conducted'
p456
I4226
sS'isa'
p457
I3871
sS'advertisingcharacters'
p458
I1315
sS'generalizations'
p459
I3148
sS'pedigreed'
p460
I4896
sS'user'
p461
I9
sS'guitarists'
p462
I3539
sS'participates'
p463
I1420
sS'suspension'
p464
I2019
sS'pencils'
p465
I3386
sS'grade'
p466
I1403
sS'attractions'
p467
I486
sS'coding'
p468
I3202
sS'primary'
p469
I1032
sS'maladies'
p470
I683
sS'adjoins'
p471
I2661
sS'channels'
p472
I2481
sS'fantasy'
p473
I2673
sS'featured'
p474
I620
sS'adopted'
p475
I3380
sS'force'
p476
I1774
sS'comic'
p477
I134
sS'tem'
p478
I4651
sS'robert3'
p479
I2567
sS'basketball'
p480
I1178
sS'service'
p481
I81
sS'lego'
p482
I4849
sS'top'
p483
I539
sS'engagement'
p484
I818
sS'corallink'
p485
I3050
sS'fiction'
p486
I651
sS'2'
I4504
sS'rates'
p487
I1470
sS'listed'
p488
I2085
sS'johm'
p489
I2252
sS'dogs'
p490
I807
sS'damaging'
p491
I381
sS'ontoligent'
p492
I4360
sS'labels'
p493
I4102
sS'urban'
p494
I141
sS'polls'
p495
I4840
sS'murder'
p496
I2569
sS'lobbyists'
p497
I4875
sS'mechanism'
p498
I4590
sS'centered'
p499
I3241
sS'tool'
p500
I454
sS'regiment'
p501
I4579
sS'coterminous'
p502
I3400
sS'posts'
p503
I4925
sS'bioventurist'
p504
I93
sS'ngerakines'
p505
I4815
sS'western'
p506
I4501
sS'cereal'
p507
I497
sS'cliches'
p508
I2483
sS'collectives'
p509
I506
sS'rorqualmaru'
p510
I2869
sS'prefecture'
p511
I2274
sS'white'
p512
I3067
sS'symptom'
p513
I1294
sS'begins'
p514
I2272
sS'distance'
p515
I3191
sS'trek'
p516
I2352
sS'target'
p517
I1499
sS'keyword'
p518
I401
sS'participated'
p519
I629
sS'meteorology'
p520
I242
sS'tree'
p521
I1175
sS'mouth'
p522
I4583
sS'nations'
p523
I262
sS'project'
p524
I489
sS'matter'
p525
I3166
sS'didn'
p526
I3795
sS'classes'
p527
I407
sS'friend'
p528
I4838
sS'historical'
p529
I945
sS'genders'
p530
I736
sS'entries'
p531
I4575
sS'beard'
p532
I4627
sS'powers'
p533
I3536
sS'acquisition'
p534
I4401
sS'perspective'
p535
I4658
sS'bridge'
p536
I1546
sS'fashion'
p537
I1283
sS'morpheme'
p538
I4676
sS'ran'
p539
I962
sS'monetarydebase'
p540
I4850
sS'plugins'
p541
I2261
sS'innovator'
p542
I3622
sS'mine'
p543
I907
sS'constellations'
p544
I2233
sS'fandom'
p545
I3756
sS'cip22'
p546
I1694
sS'principle'
p547
I4027
sS'seen'
p548
I3881
sS'picks'
p549
I3835
sS'contents'
p550
I3902
sS'webvideo'
p551
I558
sS'valuenotation'
p552
I29
sS'strength'
p553
I2791
sS'credentialed'
p554
I1527
sS'hub'
p555
I2571
sS'concrete'
p556
I1833
sS'responsible'
p557
I184
sS'crest'
p558
I3365
sS'brandon'
p559
I2126
sS'guns'
p560
I4079
sS'causing'
p561
I1214
sS'absorbed'
p562
I1276
sS'chess'
p563
I4355
sS'forces'
p564
I2533
sS'infusions'
p565
I1971
sS'judaica'
p566
I2581
sS'regulating'
p567
I3612
sS'rath'
p568
I2435
sS'rides'
p569
I2090
sS'druderman'
p570
I2211
sS'tunnels'
p571
I3065
sS'categorizes'
p572
I4540
sS'memory'
p573
I2414
sS'infrastructural'
p574
I3984
sS'acquire'
p575
I3534
sS'faye'
p576
I3331
sS'musicpf'
p577
I2378
sS'object'
p578
I47
sS'viscosity'
p579
I2549
sS'what'
p580
I3176
sS'holders'
p581
I2946
sS'translator'
p582
I1732
sS'incunabulum'
p583
I2593
sS'regular'
p584
I412
sS'polymorphic'
p585
I3490
sS'locality'
p586
I4836
sS'letter'
p587
I2231
sS'entry'
p588
I1157
sS'exercises'
p589
I1719
sS'playball'
p590
I3898
sS'coin'
p591
I1713
sS'synedra'
p592
I2135
sS'prostitute'
p593
I2630
sS'zealand'
p594
I180
sS'initiator'
p595
I1296
sS'episode'
p596
I432
sS'observation'
p597
I1707
sS'neighborhoods'
p598
I4098
sS'doc'
p599
I3163
sS'medical'
p600
I323
sS'prisons'
p601
I2249
sS'metal'
p602
I1249
sS'dog'
p603
I723
sS'treaty'
p604
I3093
sS'memberships'
p605
I468
sS'competitors'
p606
I2934
sS'points'
p607
I1488
sS'tech'
p608
I1174
sS'fugitives'
p609
I3194
sS'niallo'
p610
I4743
sS'voting'
p611
I317
sS'consumer'
p612
I1195
sS'section'
p613
I361
sS'confederation'
p614
I1216
sS'thatguy'
p615
I4617
sS'planetary'
p616
I350
sS'roleplaying'
p617
I2347
sS'cooking'
p618
I4053
sS'reactor'
p619
I1467
sS'lyrics'
p620
I2681
sS'ambassador'
p621
I2778
sS'api'
p622
I2411
sS'contributed'
p623
I1937
sS'meetings'
p624
I4868
sS'jurisdiction'
p625
I100
sS'nominated'
p626
I1357
sS'prix'
p627
I3794
sS'colors'
p628
I1699
sS'chartered'
p629
I1871
sS'radio'
p630
I1004
sS'veterinarians'
p631
I3421
sS'ptomblin'
p632
I3234
sS'keywords'
p633
I2198
sS'earth'
p634
I1705
sS'endowment'
p635
I3424
sS'availability'
p636
I1452
sS'bearer'
p637
I3548
sS'parodies'
p638
I2873
sS'execution'
p639
I2297
sS'interred'
p640
I4642
sS'researchlocations'
p641
I1831
sS'charges'
p642
I4445
sS'usnationalparks'
p643
I1289
sS'bridgedisaster'
p644
I4792
sS'headline'
p645
I1461
sS'holder'
p646
I1409
sS'abandonments'
p647
I372
sS'lawsandbox'
p648
I2247
sS'abcbirds'
p649
I1020
sS'theme'
p650
I1633
sS'judged'
p651
I1731
sS'parodied'
p652
I2872
sS'lodge'
p653
I1823
sS'inventor'
p654
I2109
sS'photographers'
p655
I3457
sS'personality'
p656
I1180
sS'predecessor'
p657
I965
sS'linkeddata'
p658
I3427
sS'exports'
p659
I763
sS'vgames'
p660
I2575
sS'cryptography'
p661
I2967
sS'mcstrother'
p662
I2161
sS'commodity'
p663
I4424
sS'domesticated'
p664
I3486
sS'endorsements'
p665
I508
sS'watch'
p666
I782
sS'preferred'
p667
I2819
sS'urbanlegends'
p668
I140
sS'haunted'
p669
I3600
sS'supplies'
p670
I2938
sS'report'
p671
I675
sS'keyword1'
p672
I399
sS'nyek'
p673
I2158
sS'botanical'
p674
I4856
sS'layout'
p675
I2727
sS'assigned'
p676
I3967
sS'runs'
p677
I3530
sS'bar'
p678
I2037
sS'brewery'
p679
I4076
sS'countries'
p680
I337
sS'spokesperson'
p681
I3516
sS'fields'
p682
I2369
sS'impounded'
p683
I4915
sS'method'
p684
I856
sS'architecture'
p685
I152
sS'carrier'
p686
I4018
sS'occurance'
p687
I190
sS'isreal'
p688
I1473
sS'wingspan'
p689
I4740
sS'flagged'
p690
I1620
sS'luminance'
p691
I4117
sS'disaster'
p692
I770
sS'reference'
p693
I1330
sS'habit'
p694
I4327
sS'inhabitation'
p695
I3449
sS'peripheral'
p696
I953
sS'followers'
p697
I4472
sS'remodeling'
p698
I3868
sS'zones'
p699
I2168
sS'opposite'
p700
I2177
sS'depends'
p701
I3563
sS'allegedly'
p702
I2977
sS'projections'
p703
I3182
sS'discussions'
p704
I3385
sS'abombss'
p705
I2003
sS'best'
p706
I3505
sS'techniques'
p707
I712
sS'determinants'
p708
I3676
sS'synonym'
p709
I4499
sS'capacity'
p710
I2025
sS'biofunction'
p711
I4331
sS'rehab'
p712
I1638
sS'visleg'
p713
I2800
sS'away'
p714
I3566
sS'sail'
p715
I599
sS'wikipedia'
p716
I1680
sS'artificial'
p717
I1994
sS'injuries'
p718
I1906
sS'stamps'
p719
I4330
sS'future'
p720
I3447
sS'olympics'
p721
I456
sS'pets'
p722
I1989
sS'traits'
p723
I2992
sS'practitioners'
p724
I4884
sS'irc'
p725
I512
sS'tolerance'
p726
I2165
sS'pirate'
p727
I102
sS'discovery'
p728
I2020
sS'subseries'
p729
I2496
sS'invention'
p730
I4508
sS'wears'
p731
I4544
sS'relative'
p732
I3957
sS'articleindices'
p733
I4194
sS'regierungsbezirk'
p734
I3318
sS'cheunger'
p735
I146
sS'seafood'
p736
I2644
sS'outages'
p737
I3274
sS'affiliates'
p738
I2117
sS'extent'
p739
I3313
sS'visited'
p740
I4644
sS'dedication'
p741
I1093
sS'byways'
p742
I1350
sS'packages'
p743
I4179
sS'roller'
p744
I2031
sS'catalytic'
p745
I4464
sS'isotopes'
p746
I3377
sS'received'
p747
I4748
sS'climate'
p748
I3658
sS'convictsydney'
p749
I1089
sS'presentations'
p750
I2720
sS'triggers'
p751
I2642
sS'country'
p752
I40
sS'ncaa'
p753
I2828
sS'adventures'
p754
I1601
sS'against'
p755
I834
sS'structure2'
p756
I1960
sS'participating'
p757
I2670
sS'players'
p758
I1605
sS'games'
p759
I77
sS'onephylogeny'
p760
I1923
sS'brigham'
p761
I3487
sS'snooker'
p762
I2961
sS'transmission'
p763
I3994
sS'contribution'
p764
I952
sS'genus'
p765
I2143
sS'adapted'
p766
I56
sS'lenses'
p767
I1064
sS'danceporn'
p768
I4093
sS'tibetanbuddhism'
p769
I3326
sS'subprocesses'
p770
I4573
sS'appeared'
p771
I3594
sS'character'
p772
I307
sS'farmfed'
p773
I2142
sS'resistivity'
p774
I4446
sS'height'
p775
I2392
sS'represented'
p776
I2880
sS'godparent'
p777
I2543
sS'initiative'
p778
I1806
sS'saiyr'
p779
I4924
sS'pregnancy'
p780
I615
sS'shapedcities'
p781
I2921
sS'litigant'
p782
I2579
sS'truss'
p783
I3003
sS'san'
p784
I3706
sS'conference'
p785
I704
sS'contestants'
p786
I3693
sS'lighthouse'
p787
I875
sS'oceanography'
p788
I1581
sS'planner'
p789
I2577
sS'engines'
p790
I165
sS'pinball'
p791
I2169
sS'union'
p792
I1522
sS'observing'
p793
I4420
sS'mythological'
p794
I4366
sS'sororities'
p795
I3027
sS'creatures'
p796
I3406
sS'synchronicity'
p797
I2291
sS'been'
p798
I1803
sS'drafting'
p799
I3547
sS'pipesmoking'
p800
I61
sS'beer'
p801
I543
sS'trigger'
p802
I4477
sS'interest'
p803
I903
sS'basic'
p804
I2023
sS'expected'
p805
I3752
sS'stp'
p806
I2906
sS'basin'
p807
I3590
sS'tallest'
p808
I4087
sS'pro'
p809
I3422
sS'idol'
p810
I3403
sS'exhibition'
p811
I1495
sS'website'
p812
I725
sS'arena'
p813
I4574
sS'life'
p814
I3560
sS'families'
p815
I3631
sS'attacked'
p816
I4870
sS'drugs'
p817
I1509
sS'worker'
p818
I1164
sS'uncommon'
p819
I3576
sS'locations'
p820
I92
sS'attacker'
p821
I4040
sS'mailing'
p822
I2805
sS'lift'
p823
I2066
sS'generalization'
p824
I1380
sS'child'
p825
I1592
sS'aviation'
p826
I279
sS'chili'
p827
I2400
sS'spin'
p828
I2613
sS'glider'
p829
I426
sS'colored'
p830
I2179
sS'applied'
p831
I2755
sS'physician'
p832
I1984
sS'exception'
p833
I4150
sS'esports'
p834
I4280
sS'tank'
p835
I1696
sS'adaptations'
p836
I2858
sS'horsefacts'
p837
I2559
sS'classificationsearch'
p838
I1295
sS'voltage'
p839
I4200
sS'tabletennis'
p840
I2563
sS'slr'
p841
I3619
sS'compositional'
p842
I2680
sS'near'
p843
I1704
sS'typeof'
p844
I125
sS'applies'
p845
I3353
sS'appeals'
p846
I2776
sS'comedian'
p847
I4577
sS'bigsky'
p848
I443
sS'chemicals'
p849
I4183
sS'anchor'
p850
I1361
sS'procedure'
p851
I1880
sS'messagers'
p852
I4452
sS'scene'
p853
I3708
sS'dabrutyn'
p854
I1248
sS'have'
p855
I2384
sS'metropolitan'
p856
I590
sS'technologyofdoing'
p857
I1162
sS'naming'
p858
I3899
sS'is'
p859
I578
sS'ii'
p860
I3864
sS'it'
p861
I940
sS'audrey'
p862
I3180
sS'player'
p863
I744
sS'continues'
p864
I4880
sS'tissue'
p865
I4115
sS'experts'
p866
I3363
sS'piercings'
p867
I1321
sS'exterior'
p868
I4441
sS'in'
p869
I51
sS'victims'
p870
I3361
sS'synopsized'
p871
I4220
sS'gaming'
p872
I4842
sS'horseracing'
p873
I959
sS'if'
p874
I1343
sS'grown'
p875
I4637
sS'damaged'
p876
I382
sS'bottles'
p877
I4334
sS'specialization'
p878
I1285
sS'chaswarner'
p879
I1372
sS'patent'
p880
I603
sS'things'
p881
I3099
sS'make'
p882
I175
sS'greatgardens'
p883
I4845
sS'amount'
p884
I4055
sS'complex'
p885
I2963
sS'split'
p886
I2008
sS'fluteflute'
p887
I2633
sS'incorrectly'
p888
I1433
sS'avoids'
p889
I3842
sS'monarch'
p890
I2891
sS'elliott'
p891
I1832
sS'phobias'
p892
I2055
sS'convictions'
p893
I3111
sS'ambassadorial'
p894
I2779
sS'acquittal'
p895
I859
sS'wheel'
p896
I305
sS'youth'
p897
I3291
sS'satellite'
p898
I1708
sS'gametheory'
p899
I2586
sS'peaks'
p900
I4268
sS'governors'
p901
I4151
sS'warder'
p902
I3604
sS'pick'
p903
I1890
sS'rail'
p904
I1490
sS'hand'
p905
I2932
sS'suburb'
p906
I1448
sS'nix'
p907
I2012
sS'documents'
p908
I2326
sS'muveszek'
p909
I4409
sS'characters'
p910
I210
sS'investments'
p911
I4160
sS'blamed'
p912
I4692
sS'cycle'
p913
I1117
sS'tunnelling'
p914
I4338
sS'vermont'
p915
I3210
sS'knockoff'
p916
I3639
sS'qualia'
p917
I1191
sS'filmflexmovies'
p918
I4203
sS'programs'
p919
I336
sS'mint1'
p920
I4256
sS'possessed'
p921
I4747
sS'boxes'
p922
I4774
sS'compartments'
p923
I4659
sS'academic'
p924
I570
sS'practicer'
p925
I4690
sS'practices'
p926
I637
sS'qualities'
p927
I3399
sS'moieties'
p928
I3861
sS'timothyf'
p929
I4311
sS'claims'
p930
I191
sS'the'
p931
I1172
sS'paradigm'
p932
I206
sS'musical'
p933
I230
sS'seasonal'
p934
I1451
sS'leagues'
p935
I2656
sS'entanglements'
p936
I2323
sS'jurisdictions'
p937
I2500
sS'protocol'
p938
I3316
sS'capitol'
p939
I4888
sS'proposed'
p940
I488
sS'sentence'
p941
I1637
sS'athletic'
p942
I3569
sS'laptop'
p943
I4216
sS'portrayer'
p944
I3845
sS'crewed'
p945
I1151
sS'crewmember'
p946
I1150
sS'proposer'
p947
I490
sS'assignee'
p948
I3966
sS'preservable'
p949
I4893
sS'battles'
p950
I4536
sS'human'
p951
I804
sS'canton'
p952
I4913
sS'portrayed'
p953
I1316
sS'succeeding'
p954
I4395
sS'politicalconventions'
p955
I1031
sS'visualization'
p956
I2260
sS'transformer'
p957
I985
sS'designers'
p958
I1718
sS'campaign'
p959
I1254
sS'candidate'
p960
I1033
sS'dining'
p961
I479
sS'photographer'
p962
I3456
sS'mediator'
p963
I4594
sS'royal'
p964
I1198
sS'mcnamara'
p965
I178
sS'belongs'
p966
I285
sS'collections'
p967
I2471
sS'board'
p968
I466
sS'antiparticle'
p969
I4726
sS'prison'
p970
I2248
sS'contestant'
p971
I2834
sS'ascents'
p972
I720
sS'has'
p973
I30
sS'photographed'
p974
I3204
sS'usable'
p975
I4082
sS'casting'
p976
I2525
sS'carol'
p977
I4858
sS'bands'
p978
I4804
sS'survival'
p979
I1469
sS'colorist'
p980
I2178
sS'possible'
p981
I3263
sS'spanned'
p982
I1547
sS'cosmetic'
p983
I4107
sS'compiler'
p984
I3012
sS'objective'
p985
I1888
sS'cultural'
p986
I1329
sS'boxer'
p987
I69
sS'birth'
p988
I884
sS'mapcentral'
p989
I1186
sS'judge'
p990
I1729
sS'unique'
p991
I761
sS'burnt'
p992
I343
sS'entertainer'
p993
I3990
sS'd'
I2497
sS'morphemes'
p994
I4677
sS'primaries'
p995
I3618
sS'appearing'
p996
I2987
sS'broadcasted'
p997
I4597
sS'gift'
p998
I2989
sS'texts'
p999
I3294
sS'musicfestival'
p1000
I1721
sS'performing'
p1001
I2394
sS'erraggy'
p1002
I3507
sS'specific'
p1003
I276
sS'lostbase'
p1004
I1938
sS'zoos'
p1005
I1559
sS'offices'
p1006
I1444
sS'officer'
p1007
I124
sS'security'
p1008
I3281
sS'digs'
p1009
I4436
sS'watercourse'
p1010
I4530
sS'antique'
p1011
I3937
sS'surf'
p1012
I3564
sS'attorney'
p1013
I1324
sS'commanders'
p1014
I2711
sS'old'
p1015
I3010
sS'biomolecule'
p1016
I2186
sS'crowd'
p1017
I2027
sS'people'
p1018
I291
sS'gregmarsh'
p1019
I4432
sS'romantically'
p1020
I4235
sS'excerpt'
p1021
I3183
sS'dedications'
p1022
I3888
sS'goldenbooks'
p1023
I2385
sS'born'
p1024
I2815
sS'clubs'
p1025
I1382
sS'productions'
p1026
I2363
sS'election'
p1027
I1747
sS'precautions'
p1028
I2653
sS'bandom'
p1029
I2216
sS'archetype'
p1030
I2531
sS'oysters'
p1031
I3454
sS'hargettp'
p1032
I4827
sS'will'
p1033
I2940
sS'theatrical'
p1034
I2362
sS'divine'
p1035
I2555
sS'for'
p1036
I1487
sS'companions'
p1037
I2089
sS'subclass'
p1038
I906
sS'icd'
p1039
I1916
sS'bowlgames'
p1040
I3890
sS'filming'
p1041
I3134
sS'zionism'
p1042
I1043
sS'broadcaster'
p1043
I1883
sS'honoured'
p1044
I1183
sS'landscape'
p1045
I1100
sS'convict'
p1046
I1090
sS'skateboarder'
p1047
I3142
sS'draq'
p1048
I4721
sS'supercouple'
p1049
I3076
sS'participation'
p1050
I2393
sS'avatar'
p1051
I3109
sS'holiday'
p1052
I2123
sS'sewing'
p1053
I4301
sS'repository'
p1054
I267
sS'derivatives'
p1055
I4276
sS'marketing'
p1056
I2404
sS'dental'
p1057
I3307
sS'illustration'
p1058
I1570
sS'graduates'
p1059
I944
sS'breeder'
p1060
I2430
sS'virginiabroadband'
p1061
I3022
sS'starring'
p1062
I885
sS'tribes'
p1063
I3648
sS'peer'
p1064
I1962
sS'post'
p1065
I2532
sS'manufacturing'
p1066
I2183
sS'super'
p1067
I3906
sS'properties'
p1068
I2572
sS'endorsing'
p1069
I509
sS'census'
p1070
I266
sS'attacks'
p1071
I4041
sS'newspapers'
p1072
I2474
sS'typeface'
p1073
I492
sS'kaplanmyrth'
p1074
I3674
sS'submarine'
p1075
I4778
sS'o'
I519
sS'kconragan'
p1076
I3066
sS'officeholders'
p1077
I4099
sS'extension'
p1078
I3273
sS'magazine'
p1079
I2038
sS'visa'
p1080
I2573
sS'anime'
p1081
I1103
sS'islands'
p1082
I3852
sS'runtime'
p1083
I3330
sS'cerealgrains'
p1084
I3813
sS'produc'
p1085
I3553
sS'contains'
p1086
I1867
sS'managers'
p1087
I1462
sS'manufacturer1'
p1088
I3049
sS'formerly'
p1089
I4341
sS'facility'
p1090
I340
sS'washed'
p1091
I2918
sS'referees'
p1092
I3702
sS'puzzle'
p1093
I1235
sS'profession'
p1094
I1924
sS'bound'
p1095
I3671
sS'intellectual'
p1096
I2442
sS'negative'
p1097
I813
sS'mandate'
p1098
I4217
sS'prisoner'
p1099
I3154
sS'morelaw'
p1100
I680
sS'explain'
p1101
I4014
sS'bats'
p1102
I1544
sS'lieu'
p1103
I2687
sS'popstra'
p1104
I58
sS'dean'
p1105
I3355
sS'shoots'
p1106
I4929
sS'rounds'
p1107
I2723
sS'duck1123'
p1108
I1686
sS'infidelity'
p1109
I1237
sS'cryptographer'
p1110
I2968
sS'fabric'
p1111
I4300
sS'inductions'
p1112
I1335
sS'segment'
p1113
I1181
sS'support'
p1114
I1137
sS'tennis'
p1115
I2305
sS'legislation'
p1116
I334
sS'sovereign'
p1117
I4207
sS'causative'
p1118
I3288
sS'fight'
p1119
I127
sS'gig'
p1120
I4392
sS'paulshanks'
p1121
I1770
sS'conservation'
p1122
I863
sS'rbstockmarket'
p1123
I4772
sS'editor'
p1124
I1736
sS'way'
p1125
I1852
sS'uncompressed'
p1126
I2558
sS'resulted'
p1127
I4465
sS'editions'
p1128
I254
sS'was'
p1129
I1956
sS'war'
p1130
I681
sS'launching'
p1131
I4387
sS'lowest'
p1132
I1402
sS'emulated'
p1133
I4092
sS'head'
p1134
I1339
sS'medium'
p1135
I197
sS'form'
p1136
I196
sS'ideologists'
p1137
I867
sS'clinics'
p1138
I3057
sS'converse'
p1139
I4125
sS'thesaurus'
p1140
I3773
sS'landing'
p1141
I3520
sS'wireless'
p1142
I2713
sS'observances'
p1143
I2941
sS'solar'
p1144
I473
sS'syndicate'
p1145
I1084
sS'greencars'
p1146
I1847
sS'true'
p1147
I717
sS'fort'
p1148
I4657
sS'garnish'
p1149
I3843
sS'likes'
p1150
I4805
sS'detective'
p1151
I3158
sS'versions'
p1152
I1617
sS'spun'
p1153
I2185
sS'staged'
p1154
I2364
sS'bounds'
p1155
I1314
sS'villans'
p1156
I4770
sS'veterinarian'
p1157
I4379
sS'pdavison'
p1158
I3309
sS'winery'
p1159
I2585
sS'corrected'
p1160
I4346
sS'zodiac'
p1161
I110
sS'stages'
p1162
I546
sS'vacationers'
p1163
I60
sS'mtg'
p1164
I2111
sS'pricing'
p1165
I3893
sS'originating'
p1166
I2234
sS'inflow'
p1167
I4556
sS'result'
p1168
I4307
sS'medication'
p1169
I2098
sS'organizational'
p1170
I4710
sS'helynevek'
p1171
I3998
sS'classic'
p1172
I1510
sS'toss'
p1173
I4231
sS'abstract'
p1174
I3261
sS'tournament'
p1175
I1396
sS'covers'
p1176
I1862
sS'inductivity'
p1177
I4193
sS'phoneme'
p1178
I3418
sS'diamond'
p1179
I3545
sS'expertise'
p1180
I1886
sS'prayer'
p1181
I4615
sS'accounting'
p1182
I3480
sS'ship'
p1183
I627
sS'nationalbridgeinventory'
p1184
I997
sS'archive'
p1185
I2821
sS'physical'
p1186
I576
sS'vertical'
p1187
I3915
sS'nl'
p1188
I3605
sS'no'
p1189
I31
sS'solarenergy'
p1190
I472
sS'ejected'
p1191
I3964
sS'actor'
p1192
I1393
sS'impostor'
p1193
I3437
sS'power'
p1194
I117
sS'tim'
p1195
I177
sS'leed'
p1196
I2624
sS'setting'
p1197
I799
sS'role'
p1198
I1159
sS'protester'
p1199
I4103
sS'holding'
p1200
I3535
sS'digital'
p1201
I234
sS'test'
p1202
I147
sS'containers'
p1203
I4620
sS'transgender'
p1204
I3807
sS'developers'
p1205
I3346
sS'operators'
p1206
I3336
sS'pseudonym'
p1207
I3172
sS'node'
p1208
I2133
sS'jdouglas'
p1209
I4897
sS'faction'
p1210
I987
sS'models'
p1211
I1531
sS'waterways'
p1212
I3096
sS'asterism'
p1213
I3828
sS'outage'
p1214
I1057
sS'diet'
p1215
I298
sS'transported'
p1216
I158
sS'exported'
p1217
I2224
sS'scorer'
p1218
I4799
sS'rolling'
p1219
I1491
sS'transfers'
p1220
I3073
sS'juiced'
p1221
I587
sS'radioactivity'
p1222
I3236
sS'apology'
p1223
I3519
sS'bestowed'
p1224
I1185
sS'serialized'
p1225
I1111
sS'telescopic'
p1226
I4028
sS'yacht'
p1227
I589
sS'landed'
p1228
I3206
sS'governed'
p1229
I2657
sS'broadband'
p1230
I3941
sS'rough'
p1231
I3546
sS'forecast'
p1232
I3836
sS'time'
p1233
I306
sS'conferred'
p1234
I4767
sS'lineup'
p1235
I4533
sS'geektastique'
p1236
I772
sS'pressue'
p1237
I4725
sS'serializes'
p1238
I666
sS'anglican'
p1239
I376
sS'concept'
p1240
I13
sS'managed'
p1241
I563
sS'doctor'
p1242
I2088
sS'poetry'
p1243
I4461
sS'dance'
p1244
I2339
sS'moobla'
p1245
I4812
sS'focus'
p1246
I902
sS'educationalshortfilm'
p1247
I1554
sS'integration'
p1248
I4734
sS'themes'
p1249
I3770
sS'mdaconta'
p1250
I4561
sS'manager'
p1251
I562
sS'lexicon'
p1252
I2667
sS'ice'
p1253
I2936
sS'computation'
p1254
I664
sS'skin'
p1255
I1532
sS'battle'
p1256
I3782
sS'noktulo'
p1257
I3491
sS'nzakmok'
p1258
I3981
sS'creative'
p1259
I4272
sS'milk'
p1260
I3139
sS'government2'
p1261
I3328
sS'retention'
p1262
I1926
sS'layers'
p1263
I4192
sS'subclasses'
p1264
I375
sS'ballet'
p1265
I596
sS'hassubconcept'
p1266
I1715
sS'grape'
p1267
I2976
sS'discoverer'
p1268
I14
sS'zone'
p1269
I845
sS'technique'
p1270
I1218
sS'father'
p1271
I2813
sS'worth'
p1272
I2600
sS'suspending'
p1273
I1801
sS'environment'
p1274
I3004
sS'charge'
p1275
I2707
sS'hobbies'
p1276
I3924
sS'alanl'
p1277
I2750
sS'astrology'
p1278
I3651
sS'orbited'
p1279
I2528
sS'suffered'
p1280
I1836
sS'recommended'
p1281
I4264
sS'prop1'
p1282
I4149
sS'division'
p1283
I71
sS'predicate'
p1284
I4886
sS'smartphone'
p1285
I4521
sS'federation'
p1286
I4753
sS'md'
p1287
I4065
sS'billionaire'
p1288
I2599
sS'controls'
p1289
I4800
sS'gestation'
p1290
I3188
sS'persona'
p1291
I1688
sS'schemastaging'
p1292
I561
sS'romanamphorae'
p1293
I3556
sS'flora'
p1294
I3682
sS'pictures'
p1295
I4835
sS'orientations'
p1296
I3190
sS'artwork'
p1297
I284
sS'prisoners'
p1298
I2502
sS'ui'
p1299
I4865
sS'little'
p1300
I4158
sS'exact'
p1301
I2167
sS'mtgbase'
p1302
I1325
sS'cool'
p1303
I452
sS'nrcs'
p1304
I3698
sS'moderator'
p1305
I3434
sS'flavored'
p1306
I4471
sS'clouds'
p1307
I245
sS'level'
p1308
I540
sS'lindajohnson'
p1309
I1977
sS'proposals'
p1310
I3193
sS'gun'
p1311
I4495
sS'venue'
p1312
I167
sS'standards'
p1313
I1844
sS'travels'
p1314
I4011
sS'item'
p1315
I1392
sS'excerpts'
p1316
I4829
sS'brothel'
p1317
I668
sS'guitars'
p1318
I3673
sS'team'
p1319
I126
sS'guy'
p1320
I4162
sS'round'
p1321
I2121
sS'caddies'
p1322
I4614
sS'prevent'
p1323
I4063
sS'olympic'
p1324
I75
sS'curated'
p1325
I3340
sS'thinkers'
p1326
I3970
sS'occurrence'
p1327
I1988
sS'trails'
p1328
I649
sS'literature'
p1329
I3765
sS'sign'
p1330
I970
sS'fairytales'
p1331
I2609
sS'affiliation'
p1332
I732
sS'thinker'
p1333
I2446
sS'universit'
p1334
I3575
sS'patient'
p1335
I1639
sS'appointer'
p1336
I1892
sS'suoer'
p1337
I1691
sS'port'
p1338
I1584
sS'researchproject'
p1339
I2629
sS'spectral'
p1340
I1756
sS'constitution'
p1341
I2615
sS'movies'
p1342
I1671
sS'comparable'
p1343
I4760
sS'celebrated'
p1344
I3726
sS'shares'
p1345
I4455
sS'debate'
p1346
I1353
sS'current'
p1347
I1097
sS'extraterrestrial'
p1348
I2009
sS'energy'
p1349
I2338
sS'suspect'
p1350
I1369
sS'dishonored'
p1351
I4198
sS'template'
p1352
I1652
sS'illustrations'
p1353
I240
sS'international'
p1354
I2282
sS'stream'
p1355
I3819
sS'staff'
p1356
I947
sS'badge'
p1357
I4285
sS'cleaner'
p1358
I4182
sS'supporting'
p1359
I383
sS'mediaextended'
p1360
I2041
sS'transportation'
p1361
I1545
sS'1231'
p1362
I3055
sS'manifacturer'
p1363
I4382
sS'months'
p1364
I1484
sS'honour'
p1365
I1184
sS'inauguration'
p1366
I1481
sS'mr'
p1367
I1471
sS'french'
p1368
I3980
sS'mst3k'
p1369
I1982
sS'water'
p1370
I549
sS'meteorites'
p1371
I315
sS'filmed'
p1372
I4588
sS'baseball'
p1373
I482
sS'supertopics'
p1374
I4511
sS'groups'
p1375
I795
sS'address'
p1376
I1483
sS'aqueducts'
p1377
I4225
sS'combatant'
p1378
I2101
sS'daylifeservices'
p1379
I2235
sS'wage'
p1380
I4918
sS'earthquake'
p1381
I90
sS'change'
p1382
I1907
sS'unfinished'
p1383
I3477
sS'box'
p1384
I4075
sS'proofsareprograms'
p1385
I951
sS'interests'
p1386
I1812
sS'precursor'
p1387
I2259
sS'shift'
p1388
I2535
sS'generator'
p1389
I4120
sS'funded'
p1390
I4032
sS'example'
p1391
I2830
sS'queue'
p1392
I1438
sS'trial'
p1393
I324
sS'explosions'
p1394
I4908
sS'addictive'
p1395
I3337
sS'polling'
p1396
I4839
sS'litcentral'
p1397
I606
sS'locomotion'
p1398
I2794
sS'synopsizes'
p1399
I4438
sS'automaton'
p1400
I2837
sS'studies'
p1401
I1232
sS'massage'
p1402
I4077
sS'king'
p1403
I4861
sS'lighthouses'
p1404
I3397
sS'tasks'
p1405
I2925
sS'love'
p1406
I4518
sS'allain'
p1407
I1016
sS'extra'
p1408
I1607
sS'colbert'
p1409
I4181
sS'losing'
p1410
I3599
sS'plopquiz'
p1411
I1552
sS'radiance'
p1412
I2844
sS'industrystandards'
p1413
I886
sS'sufferers'
p1414
I640
sS'ballets'
p1415
I850
sS'fictionalization'
p1416
I3839
sS'bookmarks'
p1417
I4741
sS'deployments'
p1418
I3393
sS'during'
p1419
I2315
sS'firearm'
p1420
I3488
sS'market'
p1421
I1781
sS'hotels'
p1422
I2811
sS'flavors'
p1423
I1797
sS'opposes'
p1424
I4496
sS'or'
p1425
I417
sS'additive'
p1426
I3264
sS'jefarmstrong'
p1427
I4425
sS'merged'
p1428
I3919
sS'sports'
p1429
I68
sS'vineyard'
p1430
I1415
sS'territories'
p1431
I4044
sS'live'
p1432
I2826
sS'handler'
p1433
I3164
sS'criteria'
p1434
I1811
sS'films'
p1435
I329
sS'scope'
p1436
I706
sS'australian'
p1437
I1447
sS'bill'
p1438
I4683
sS'theoretical'
p1439
I1788
sS'pres'
p1440
I4934
sS'riedelcastro'
p1441
I2517
sS'chapter'
p1442
I721
sS'commissioner'
p1443
I4905
sS'sharing'
p1444
I1795
sS'conductor'
p1445
I2340
sS'sessions'
p1446
I3627
sS'club'
p1447
I1007
sS'skud'
p1448
I816
sS'inventions'
p1449
I3849
sS'distribution'
p1450
I1512
sS'clients'
p1451
I4844
sS'employee'
p1452
I4562
sS'visual'
p1453
I283
sS'beers'
p1454
I544
sS'investigation'
p1455
I3940
sS'employed'
p1456
I3667
sS'corresponding'
p1457
I4047
sS'actsofparliament'
p1458
I1454
sS'cases'
p1459
I2580
sS'osprey'
p1460
I4274
sS'mascot'
p1461
I2001
sS'fly'
p1462
I1066
sS'organizations'
p1463
I1839
sS'graphic'
p1464
I1345
sS'recurrance'
p1465
I2753
sS'edible'
p1466
I2948
sS'competion'
p1467
I4935
sS'car'
p1468
I1794
sS'originally'
p1469
I3788
sS'modified'
p1470
I1436
sS'believer'
p1471
I4138
sS'cat'
p1472
I900
sS'reviews'
p1473
I1149
sS'dcarruth'
p1474
I1280
sS'minimum'
p1475
I4917
sS'values'
p1476
I2851
sS'chivalric'
p1477
I2279
sS'curator'
p1478
I3339
sS'viewfinder'
p1479
I2328
sS'pumpkin'
p1480
I2590
sS'dosage'
p1481
I2740
sS'deceased'
p1482
I2140
sS'breeds'
p1483
I798
sS'originalidea'
p1484
I3198
sS'photographs'
p1485
I1868
sS'dedicated'
p1486
I1092
sS'subcategories'
p1487
I990
sS'figure'
p1488
I1039
sS'derivativeworks'
p1489
I4833
sS'attribute'
p1490
I4847
sS'exploit'
p1491
I3983
sS'undergroundhumanthings'
p1492
I1129
sS'protour'
p1493
I2694
sS'acquittals'
p1494
I2605
sS'agent'
p1495
I2251
sS'topic'
p1496
I20
sS'heard'
p1497
I1068
sS'celsius'
p1498
I3466
sS'performed'
p1499
I2495
sS'council'
p1500
I1701
sS'phrase'
p1501
I3812
sS'spa'
p1502
I1278
sS'spanning'
p1503
I4468
sS'parliamentary'
p1504
I4419
sS'requirements'
p1505
I4936
sS'pokervariants'
p1506
I1424
sS'sailboat'
p1507
I3939
sS'discussion'
p1508
I565
sS'cliche'
p1509
I3028
sS'chemical'
p1510
I114
sS'plaintiff'
p1511
I1825
sS'vancouver'
p1512
I1549
sS'filmcameras'
p1513
I1562
sS'exceptions'
p1514
I3577
sS'survivors'
p1515
I2489
sS'testmatchspecial'
p1516
I4348
sS'militaryinfiction'
p1517
I888
sS'producted'
p1518
I3517
sS'mmcm'
p1519
I1967
sS'impersonated'
p1520
I2389
sS'map'
p1521
I464
sS'product'
p1522
I131
sS'designer'
p1523
I698
sS'cocktail'
p1524
I2665
sS'influenced'
p1525
I686
sS'may'
p1526
I4062
sS'metarated'
p1527
I130
sS'astronomydominy'
p1528
I3716
sS'spot'
p1529
I2973
sS'branched'
p1530
I4229
sS'applications'
p1531
I4688
sS'membership'
p1532
I2390
sS'produce'
p1533
I1948
sS'crewman'
p1534
I3278
sS'designed'
p1535
I854
sS'date'
p1536
I2494
sS'representations'
p1537
I2881
sS'employers'
p1538
I4667
sS'data'
p1539
I270
sS'compatibility'
p1540
I2107
sS'man'
p1541
I2296
sS'britishpubs'
p1542
I3531
sS'surfing'
p1543
I2275
sS'branches'
p1544
I1983
sS'varieties'
p1545
I3743
sS'succeeded'
p1546
I1995
sS'playboyplaymates'
p1547
I4515
sS'futures'
p1548
I1365
sS'lightweight'
p1549
I4364
sS'tale'
p1550
I1171
sS'inhabiting'
p1551
I810
sS'si'
p1552
I1874
sS'dishonoured'
p1553
I4197
sS'syndicated'
p1554
I1086
sS'sm'
p1555
I2309
sS'tall'
p1556
I626
sS'kurt'
p1557
I3249
sS'graphapi'
p1558
I1979
sS'manga'
p1559
I1104
sS'se'
p1560
I2293
sS'comarca'
p1561
I3850
sS'embassies'
p1562
I1384
sS'tagged'
p1563
I4342
sS'serving'
p1564
I3533
sS'whamoworld'
p1565
I516
sS'words'
p1566
I3979
sS'archeologist'
p1567
I3373
sS'repair'
p1568
I4067
sS'webpage'
p1569
I776
sS'constituents'
p1570
I2763
sS'heraldic'
p1571
I1375
sS'displayed'
p1572
I3141
sS'argues'
p1573
I1738
sS'course'
p1574
I697
sS'episodes'
p1575
I232
sS'impostors'
p1576
I3436
sS'statistical'
p1577
I269
sS'pitch'
p1578
I4463
sS'supertopic'
p1579
I3659
sS'deity'
p1580
I1203
sS'worship'
p1581
I1153
sS'fileformats'
p1582
I2804
sS'christmas'
p1583
I4857
sS'rosetta'
p1584
I1144
sS'police'
p1585
I123
sS'courthouse'
p1586
I3280
sS'curly'
p1587
I1598
sS'organisation'
p1588
I183
sS'synagogues'
p1589
I4124
sS'startrek'
p1590
I2350
sS'forms'
p1591
I1445
sS'platform'
p1592
I1780
sS'coaching'
p1593
I946
sS'testimony'
p1594
I4653
sS'theorized'
p1595
I4765
sS'listing'
p1596
I752
sS'coordinated'
p1597
I1244
sS'secondary'
p1598
I1374
sS'meridian'
p1599
I2213
sS'happened'
p1600
I193
sS'correspondence'
p1601
I2060
sS'roses'
p1602
I2603
sS'non'
p1603
I2602
sS'fetishes'
p1604
I4745
sS'qualifies'
p1605
I2853
sS'finance'
p1606
I1810
sS'recipients'
p1607
I4691
sS'views'
p1608
I4873
sS'matches'
p1609
I2964
sS'kwrelation'
p1610
I3502
sS'killer'
p1611
I2444
sS'solubility'
p1612
I1168
sS'elbogen'
p1613
I1418
sS'underneath'
p1614
I4703
sS'records'
p1615
I2606
sS'transmissions'
p1616
I4050
sS'qualified'
p1617
I2850
sS'wealthy'
p1618
I2939
sS'not'
p1619
I4593
sS'metabolite'
p1620
I113
sS'postagestamps'
p1621
I3285
sS'hall'
p1622
I1332
sS'lineage'
p1623
I922
sS'down'
p1624
I4218
sS'term'
p1625
I3137
sS'name'
p1626
I277
sS'opera'
p1627
I1268
sS'james'
p1628
I670
sS'settings'
p1629
I2516
sS'hbowden'
p1630
I1856
sS'ensemble'
p1631
I4227
sS'associationfootball'
p1632
I3757
sS'culturalevent'
p1633
I3031
sS'sponsorship'
p1634
I3606
sS'varient'
p1635
I4298
sS'bowler'
p1636
I4034
sS'rock'
p1637
I765
sS'magazines'
p1638
I3988
sS'concerts'
p1639
I3088
sS'kibbutz'
p1640
I4404
sS'domain'
p1641
I74
sS'primarily'
p1642
I2986
sS'subgame'
p1643
I4114
sS'mutargy'
p1644
I2159
sS'torch'
p1645
I3677
sS'directing'
p1646
I4388
sS'fr'
p1647
I2265
sS'conventions'
p1648
I3021
sS'challenger'
p1649
I3862
sS'fires'
p1650
I341
sS'sponsor'
p1651
I1556
sS'year'
p1652
I2125
sS'ecoregion'
p1653
I2492
sS'orchestrator'
p1654
I3333
sS'girl'
p1655
I1599
sS'dancingwiththestars'
p1656
I2566
sS'disasters'
p1657
I1515
sS'es'
p1658
I465
sS'description'
p1659
I1101
sS'album'
p1660
I41
sS'living'
p1661
I3802
sS'medications'
p1662
I3641
sS'container'
p1663
I3549
sS'gamers'
p1664
I2190
sS'space'
p1665
I225
sS'profit'
p1666
I2372
sS'contained'
p1667
I914
sS'nominal'
p1668
I2888
sS'macro1970'
p1669
I3144
sS'internet'
p1670
I538
sS'windenergy'
p1671
I4314
sS'formula'
p1672
I949
sS'receiving'
p1673
I4801
sS'sensor'
p1674
I1766
sS'battlespace'
p1675
I3783
sS'bordering'
p1676
I2232
sS'metro'
p1677
I3276
sS'costumes'
p1678
I4675
sS'attended'
p1679
I3551
sS'monster'
p1680
I319
sS'pathogenic'
p1681
I2162
sS'variant'
p1682
I1426
sS'dfsdf'
p1683
I3153
sS'instrumentalists'
p1684
I1595
sS'governing'
p1685
I188
sS'treatments'
p1686
I1915
sS'recordings'
p1687
I1622
sS'jockey'
p1688
I1263
sS'techgnostic'
p1689
I138
sS'typec'
p1690
I4211
sS'graphemes'
p1691
I4914
sS'poems'
p1692
I1003
sS'disaster2'
p1693
I46
sS'accommodation'
p1694
I204
sS'card'
p1695
I1900
sS'care'
p1696
I1533
sS'patronage'
p1697
I3473
sS'imagin'
p1698
I3645
sS'training'
p1699
I600
sS'derivation'
p1700
I2013
sS'language'
p1701
I38
sS'dinosaurs'
p1702
I2795
sS'rule'
p1703
I3317
sS'transition'
p1704
I1805
sS'programming'
p1705
I205
sS'pandemic'
p1706
I3063
sS'routed'
p1707
I2429
sS'thing'
p1708
I290
sS'place'
p1709
I883
sS'aboard'
p1710
I1872
sS'styles'
p1711
I2264
sS'promotion'
p1712
I3030
sS'view'
p1713
I1793
sS'alonm'
p1714
I4029
sS'think'
p1715
I1695
sS'teammates'
p1716
I2697
sS'first'
p1717
I719
sS'origin'
p1718
I387
sS'cheese'
p1719
I2479
sS'flying'
p1720
I3521
sS'surviving'
p1721
I1166
sS'revenue'
p1722
I3123
sS'spoken'
p1723
I805
sS'municipality'
p1724
I3985
sS'one'
p1725
I1946
sS'shipyard'
p1726
I2453
sS'houle'
p1727
I2825
sS'periodical'
p1728
I139
sS'vote'
p1729
I1036
sS'rind'
p1730
I2919
sS'array'
p1731
I238
sS'akatenev'
p1732
I1266
sS'open'
p1733
I1428
sS'angular'
p1734
I2910
sS'engineer'
p1735
I755
sS'city'
p1736
I789
sS'given'
p1737
I872
sS'x2008'
p1738
I2565
sS'officials'
p1739
I4170
sS'district'
p1740
I294
sS'experted'
p1741
I3362
sS'canoodled'
p1742
I2403
sS'breed'
p1743
I724
sS'pronunciation'
p1744
I4402
sS'establishment'
p1745
I3996
sS'runways'
p1746
I4853
sS'cooling'
p1747
I3646
sS'influencing'
p1748
I2536
sS'draft'
p1749
I1077
sS'fgdc'
p1750
I2267
sS'convention'
p1751
I1230
sS'glondish'
p1752
I304
sS'structures'
p1753
I320
sS'frame'
p1754
I4895
sS'speaking'
p1755
I3931
sS'hud'
p1756
I360
sS'nutrition'
p1757
I3574
sS'mining'
p1758
I2848
sS'rivalries'
p1759
I2914
sS'releases'
p1760
I756
sS'that'
p1761
I192
sS'ownership'
p1762
I2597
sS'season'
p1763
I411
sS'taxation'
p1764
I2303
sS'webservicesprocessmodel'
p1765
I1809
sS'illusionist'
p1766
I1125
sS'undertaken'
p1767
I3785
sS'broadcast'
p1768
I808
sS'released'
p1769
I4882
sS'arity'
p1770
I4775
sS'danny'
p1771
I3550
sS'meedan'
p1772
I450
sS'kgraetz'
p1773
I4215
sS'photographic'
p1774
I711
sS'semantics'
p1775
I1250
sS'population'
p1776
I1121
sS'cocktails'
p1777
I2664
sS'television'
p1778
I4503
sS'third'
p1779
I3584
sS'sailing'
p1780
I1287
sS'digitalarchivist'
p1781
I2592
sS'rival'
p1782
I2915
sS'diplomatic'
p1783
I3670
sS'modelled'
p1784
I3935
sS'halls'
p1785
I4294
sS'coats'
p1786
I440
sS'protected'
p1787
I567
sS'venture'
p1788
I3817
sS'fruits'
p1789
I3914
sS'cards'
p1790
I2765
sS'zsi'
p1791
I1405
sS'browser'
p1792
I2726
sS'and'
p1793
I345
sS'manufacture'
p1794
I3885
sS'sai'
p1795
I2434
sS'formula1'
p1796
I948
sS'armored'
p1797
I2734
sS'investors'
p1798
I4033
sS'dminkley'
p1799
I4036
sS'acknowledged'
p1800
I4686
sS'topics'
p1801
I515
sS'argument'
p1802
I1351
sS'mediaasset'
p1803
I955
sS'eats'
p1804
I3351
sS'realm'
p1805
I4038
sS'apologies'
p1806
I4867
sS'tastes'
p1807
I912
sS'sojourns'
p1808
I3074
sS'arachnid'
p1809
I1169
sS'infinitejest'
p1810
I3617
sS'breakfast'
p1811
I496
sS'borough'
p1812
I3143
sS'occupied'
p1813
I4454
sS'any'
p1814
I2655
sS'batting'
p1815
I2478
sS'page1'
p1816
I273
sS'serials'
p1817
I4152
sS'muvek'
p1818
I4698
sS'ramanan'
p1819
I2050
sS'postings'
p1820
I3279
sS'offering'
p1821
I3732
sS'alias'
p1822
I3878
sS'general'
p1823
I2422
sS'inked'
p1824
I3283
sS'manufacturers'
p1825
I548
sS'ideas'
p1826
I3623
sS'hotspot'
p1827
I3827
sS'zoo'
p1828
I1560
sS'equipment'
p1829
I478
sS'iron'
p1830
I2816
sS'potential'
p1831
I2182
sS'handicap'
p1832
I4015
sS'online'
p1833
I1518
sS'interior'
p1834
I239
sS'performance'
p1835
I431
sS'many'
p1836
I3179
sS'inker'
p1837
I3282
sS'biohacker'
p1838
I2636
sS'channel'
p1839
I513
sS'yusho'
p1840
I3239
sS'zeusi'
p1841
I186
sS'appellation'
p1842
I1768
sS'animalpathology'
p1843
I3930
sS'mountaineer'
p1844
I718
sS'theatre'
p1845
I1539
sS'roster'
p1846
I151
sS'track'
p1847
I256
sS'servicemembers'
p1848
I3083
sS'price'
p1849
I1727
sS'inks'
p1850
I1548
sS'pharaoh'
p1851
I2799
sS'relays'
p1852
I4927
sS'biologydev'
p1853
I2962
sS'algebraic'
p1854
I2310
sS'printed'
p1855
I1901
sS'stats'
p1856
I1179
sS'provenances'
p1857
I3237
sS'icon'
p1858
I3715
sS'byway'
p1859
I1349
sS'breads'
p1860
I4634
sS'radioactive'
p1861
I4335
sS'revisioncontrol'
p1862
I3297
sS'fisheries'
p1863
I4818
sS'considered'
p1864
I2717
sS'jamslevy'
p1865
I1551
sS'mangala'
p1866
I2072
sS'later'
p1867
I3771
sS'infections'
p1868
I4019
sS'heat'
p1869
I3335
sS'ascenders'
p1870
I4550
sS'pattern'
p1871
I1897
sS'professional'
p1872
I1096
sS'hedgehog'
p1873
I3300
sS'newsevents'
p1874
I709
sS'laws'
p1875
I4356
sS'shop'
p1876
I2153
sS'rating'
p1877
I1236
sS'medalist'
p1878
I1051
sS'letterer'
p1879
I4369
sS'provences'
p1880
I346
sS'marshalled'
p1881
I1161
sS'german'
p1882
I3127
sS'mains'
p1883
I2053
sS'recipe'
p1884
I477
sS'thoroughbredracing'
p1885
I747
sS'detroiter313'
p1886
I2331
sS'discovered'
p1887
I1030
sS'penciller'
p1888
I1755
sS'lettered'
p1889
I4370
sS'assassination'
p1890
I4719
sS'codomain'
p1891
I355
sS'inhibitors'
p1892
I2484
sS'imagined'
p1893
I2640
sS'geography'
p1894
I532
sS'glue'
p1895
I4390
sS'dormitory'
p1896
I1677
sS'ratio'
p1897
I932
sS'dice'
p1898
I994
sS'treaties'
p1899
I4631
sS'title'
p1900
I395
sS'canonized'
p1901
I4470
sS'representation'
p1902
I4142
sS'archdioceses'
p1903
I3019
sS'saints'
p1904
I2462
sS'state'
p1905
I181
sS'texture'
p1906
I1378
sS'crime'
p1907
I122
sS'ammount'
p1908
I3555
sS'hockey'
p1909
I409
sS'taxonomy'
p1910
I2847
sS'timrdf'
p1911
I730
sS'stain'
p1912
I4254
sS'virtual'
p1913
I3110
sS'narphorium'
p1914
I630
sS'congressional'
p1915
I2199
sS'dispute'
p1916
I1840
sS'ranking'
p1917
I692
sS'sourced'
p1918
I4834
sS'giscience'
p1919
I4121
sS'knockoffs'
p1920
I3638
sS'get'
p1921
I2758
sS'debased'
p1922
I4851
sS'assistant'
p1923
I3701
sS'replaces'
p1924
I3419
sS'designated'
p1925
I1265
sS'emulators'
p1926
I3908
sS'correlated'
p1927
I3944
sS'charities'
p1928
I1742
sS'killers'
p1929
I4245
sS'tectonic'
p1930
I3493
sS'outlet'
p1931
I3809
sS'geo'
p1932
I3203
sS'boundary'
p1933
I3495
sS'blends'
p1934
I2103
sS'conservationaction'
p1935
I1243
sS'prime'
p1936
I624
sS'resource'
p1937
I1609
sS'productplacement'
p1938
I4483
sS'artist'
p1939
I44
sS'gavinci'
p1940
I984
sS'wavenumber'
p1941
I2730
sS'pest'
p1942
I4869
sS'thermal'
p1943
I3043
sS'mon'
p1944
I2219
sS'subtype'
p1945
I2288
sS'scientist'
p1946
I2382
sS'caucus'
p1947
I4571
sS'astrologicalplanet'
p1948
I4411
sS'shaped'
p1949
I2922
sS'where'
p1950
I892
sS'birdinfo'
p1951
I1120
sS'flooding'
p1952
I4663
sS'trondarild'
p1953
I4752
sS'apocalypses'
p1954
I3644
sS'concert'
p1955
I415
sS'publishers'
p1956
I2348
sS'encourages'
p1957
I4798
sS'fellowships'
p1958
I4768
sS'artworks'
p1959
I2043
sS'ends'
p1960
I4241
sS'seat'
p1961
I3213
sS'connections'
p1962
I2485
sS'elected'
p1963
I3329
sS'sandos'
p1964
I663
sS'subgenres'
p1965
I4629
sS'college'
p1966
I1443
sS'lifespan'
p1967
I4922
sS'iceandfire'
p1968
I2736
sS'parking'
p1969
I2956
sS'murdered'
p1970
I3325
sS'optometrist'
p1971
I3314
sS'calendar'
p1972
I974
sS'sport'
p1973
I187
sS'buildlings'
p1974
I2626
sS'concern'
p1975
I1815
sS'israeli'
p1976
I4127
sS'superjacent'
p1977
I4429
sS'amby'
p1978
I2534
sS'compounds'
p1979
I3167
sS'federal'
p1980
I4900
sS'review'
p1981
I2748
sS'oldwine'
p1982
I2583
sS'sites'
p1983
I568
sS'label'
p1984
I2208
sS'weapons'
p1985
I1042
sS'originated'
p1986
I4317
sS'metabolites'
p1987
I4332
sS'enumerated'
p1988
I4421
sS'import'
p1989
I909
sS'developer'
p1990
I2240
sS'therapies'
p1991
I3818
sS'browsers'
p1992
I2729
sS'monsterceo'
p1993
I3892
sS'infrastructure'
p1994
I155
sS'jobs'
p1995
I4399
sS'uk'
p1996
I1700
sS'parent'
p1997
I27
sS'mime'
p1998
I4010
sS'spring'
p1999
I3978
sS'screen'
p2000
I3602
sS'snowboarding'
p2001
I4002
sS'jp'
p2002
I2273
sS'miquael'
p2003
I2530
sS'killing'
p2004
I4247
sS'guitar'
p2005
I3538
sS'awards'
p2006
I1730
sS'singers'
p2007
I4113
sS'serialization'
p2008
I665
sS'cities'
p2009
I963
sS'postage'
p2010
I3286
sS'blame'
p2011
I4890
sS'dates'
p2012
I2576
sS'rugby'
p2013
I2454
sS'missions'
p2014
I2785
sS'cyclones'
p2015
I2469
sS'residence'
p2016
I2764
sS'region'
p2017
I322
sS'23'
p2018
I4278
sS'parts'
p2019
I4083
sS'contract'
p2020
I4826
sS'cidoc'
p2021
I573
sS's'
I53
sS'patrons'
p2022
I4462
sS'dated'
p2023
I1750
sS'remake'
p2024
I4814
sS'designations'
p2025
I2808
sS'comet'
p2026
I2506
sS'railway'
p2027
I844
sS'expression'
p2028
I3168
sS'prequel'
p2029
I2285
sS'comes'
p2030
I3407
sS'nearby'
p2031
I3824
sS'stance'
p2032
I2277
sS'diagnose'
p2033
I4681
sS'maintainer'
p2034
I4431
sS'cancer'
p2035
I2287
sS'color'
p2036
I236
sS'mythologies'
p2037
I4089
sS'hybrids'
p2038
I2812
sS'singer'
p2039
I4621
sS'colony'
p2040
I389
sS'period'
p2041
I1082
sS'jschell'
p2042
I166
sS'twin'
p2043
I1139
sS'pok'
p2044
I2218
sS'nationality'
p2045
I882
sS'championships1'
p2046
I4480
sS'extinct'
p2047
I1079
sS'writing'
p2048
I1505
sS'boat'
p2049
I2651
sS'illuminance'
p2050
I877
sS'graphics'
p2051
I1602
sS'jg'
p2052
I72
sS'cycling'
p2053
I1087
sS'hproduct'
p2054
I1594
sS'environmentalism'
p2055
I4208
sS'mounting'
p2056
I2374
sS'id'
p2057
I3252
sS'computing'
p2058
I3529
sS'conceptualizer'
p2059
I836
sS'airlines'
p2060
I2087
sS'dspl'
p2061
I554
sS'tropical'
p2062
I1641
sS'acre'
p2063
I2883
sS'naruto'
p2064
I1368
sS'featuring'
p2065
I1672
sS'covering'
p2066
I2701
sS'umpire'
p2067
I3585
sS'engine'
p2068
I163
sS'flavonoid'
p2069
I937
sS'direction'
p2070
I2524
sS'diesel'
p2071
I4780
sS'shopping'
p2072
I1631
sS'indirect'
p2073
I4175
sS'pesticide'
p2074
I3874
sS'offered'
p2075
I3528
sS'formed'
p2076
I1751
sS'administrator'
p2077
I4891
sS'regency'
p2078
I3936
sS'motility'
p2079
I4414
sS'anscillary'
p2080
I2083
sS'external'
p2081
I132
sS'standup'
p2082
I3926
sS'acquiring'
p2083
I4413
sS'spirit'
p2084
I435
sS'protocols'
p2085
I1194
sS'case'
p2086
I1212
sS'excerpted'
p2087
I3184
sS'hds'
p2088
I1824
sS'margit'
p2089
I1895
sS'these'
p2090
I653
sS'personnel'
p2091
I1912
sS'mount'
p2092
I1063
sS'ponies'
p2093
I3911
sS'sex'
p2094
I2316
sS'single'
p2095
I1616
sS'profiles'
p2096
I2064
sS'jursidiction'
p2097
I4116
sS'trick'
p2098
I3753
sS'cast'
p2099
I1693
sS'editorial'
p2100
I1406
sS'fashionmodels'
p2101
I2202
sS'newspaper'
p2102
I510
sS'exist'
p2103
I3799
sS'constituency'
p2104
I3226
sS'passes'
p2105
I3655
sS'yupgrade'
p2106
I3610
sS'edgarpoe'
p2107
I4185
sS'orientation'
p2108
I201
sS'conferences'
p2109
I703
sS'canoe'
p2110
I1834
sS'soil'
p2111
I1131
sS'metric'
p2112
I555
sS'marshaled'
p2113
I4212
sS'commander'
p2114
I2514
sS'cluster'
p2115
I3704
sS'decoration'
p2116
I3772
sS'evening'
p2117
I1597
sS'attributed'
p2118
I1434
sS'stradivarius6'
p2119
I4147
sS'commanded'
p2120
I3956
sS'nation'
p2121
I3177
sS'property'
p2122
I786
sS'technology'
p2123
I94
sS'fame'
p2124
I1333
sS'wordnet'
p2125
I3975
sS'diseases'
p2126
I881
sS'binary'
p2127
I3717
sS'synagogue'
p2128
I3061
sS'participant'
p2129
I1238
sS'author'
p2130
I8
sS'alphabet'
p2131
I1071
sS'granted'
p2132
I442
sS'formulations'
p2133
I694
sS'bowl'
p2134
I3891
sS'tour'
p2135
I416
sS'trip'
p2136
I3230
sS'poetic'
p2137
I3540
sS'html'
p2138
I2728
sS'speech'
p2139
I1951
sS'arguments'
p2140
I716
sS'chairperson'
p2141
I4695
sS'distilled'
p2142
I433
sS'grain'
p2143
I3814
sS'webmark'
p2144
I2899
sS'document'
p2145
I1145
sS'events'
p2146
I628
sS'status'
p2147
I176
sS'noble'
p2148
I2176
sS'extended'
p2149
I825
sS'sharable'
p2150
I4665
sS'closest'
p2151
I1292
sS'weel'
p2152
I2689
sS'foal'
p2153
I1342
sS'rfid'
p2154
I1431
sS'driver'
p2155
I2647
sS'awarding'
p2156
I4586
sS'director'
p2157
I448
sS'persons'
p2158
I4025
sS'running'
p2159
I2148
sS'fruit'
p2160
I3913
sS'conductors'
p2161
I4228
sS'two'
p2162
I4265
sS'sumo'
p2163
I3238
sS'changing'
p2164
I1908
sS'tradition'
p2165
I2193
sS'weave'
p2166
I3932
sS'theater'
p2167
I852
sS'modes'
p2168
I3270
sS'framework'
p2169
I1517
sS'shared'
p2170
I4440
sS'traded'
p2171
I4604
sS'random'
p2172
I2846
sS'ranch'
p2173
I2042
sS'constitutional'
p2174
I1985
sS'rehabilitated'
p2175
I3038
sS'glacier'
p2176
I2935
sS'launched'
p2177
I3060
sS'components'
p2178
I2512
sS'trains'
p2179
I4459
sS'coordinate'
p2180
I2212
sS'termination'
p2181
I4130
sS'model'
p2182
I428
sS'ghtech'
p2183
I2187
sS'interface'
p2184
I3504
sS'dimension'
p2185
I1717
sS'researchers'
p2186
I1233
sS'parody'
p2187
I2871
sS'gdp'
p2188
I2887
sS'taxa'
p2189
I610
sS'racehorse'
p2190
I749
sS'pitched'
p2191
I2677
sS'young'
p2192
I4352
sS'gh'
p2193
I2703
sS'imprint'
p2194
I4039
sS'locks'
p2195
I3296
sS'emulator'
p2196
I1576
sS'refactor'
p2197
I1614
sS'positions'
p2198
I2981
sS'wsjbase'
p2199
I4007
sS'lars3loff'
p2200
I3304
sS'flavor'
p2201
I1798
sS'reality'
p2202
I3692
sS'speed'
p2203
I3113
sS'guides'
p2204
I1572
sS'digicams'
p2205
I233
sS'doctoral'
p2206
I2912
sS'death'
p2207
I1132
sS'staging'
p2208
I1524
sS'snowboarder'
p2209
I4001
sS'standardized'
p2210
I3469
sS'flood'
p2211
I1775
sS'rose'
p2212
I3632
sS'geological'
p2213
I2313
sS'confirmed'
p2214
I4137
sS'blog'
p2215
I954
sS'instrument'
p2216
I1119
sS'nobelprizes'
p2217
I3254
sS'correctedassumptions'
p2218
I4345
sS'treatment'
p2219
I1281
sS'subdisciplines'
p2220
I4234
sS'actors'
p2221
I3973
sS'bread'
p2222
I4790
sS'real'
p2223
I792
sS'drink'
p2224
I3856
sS'establishments'
p2225
I3855
sS'complemented'
p2226
I4305
sS'blackhound'
p2227
I1416
sS'read'
p2228
I3443
sS'optometrists'
p2229
I3315
sS'specimen'
p2230
I2743
sS'income'
p2231
I2280
sS'objectionablecontent'
p2232
I1410
sS'loaned'
p2233
I3620
sS'architectural'
p2234
I459
sS'venues'
p2235
I1496
sS'republic'
p2236
I4863
sS'symbolism'
p2237
I1846
sS'world'
p2238
I829
sS'accepted'
p2239
I735
sS'recipient'
p2240
I625
sS'gram'
p2241
I4253
sS'ligtvoet'
p2242
I4008
sS'ruled'
p2243
I3544
sS'clan'
p2244
I4284
sS'designation'
p2245
I2194
sS'particle'
p2246
I374
sS'xbroadcast'
p2247
I4310
sS'patrick'
p2248
I2242
sS'collective'
p2249
I901
sS'combines'
p2250
I4325
sS'fishing'
p2251
I4306
sS'maintained'
p2252
I2301
sS'serves'
p2253
I2395
sS'server'
p2254
I83
sS'shutter'
p2255
I3112
sS'audience'
p2256
I3039
sS't'
I2854
sS'robbery'
p2257
I1932
sS'certifications'
p2258
I3734
sS'served'
p2259
I295
sS'tower'
p2260
I2408
sS'endorsed'
p2261
I1206
sS'endorsee'
p2262
I2773
sS'kwconnection'
p2263
I2548
sS'grouping'
p2264
I3954
sS'scored'
p2265
I2450
sS'fiver'
p2266
I1017
sS'jonathanwlowe'
p2267
I1312
sS'truths'
p2268
I3950
sS'rpf'
p2269
I4322
sS'competition'
p2270
I536
sS'givennames'
p2271
I871
sS'youtube'
p2272
I4737
sS'astronomer'
p2273
I4755
sS'elements'
p2274
I1745
sS'duration'
p2275
I2574
sS'subtypes'
p2276
I2433
sS'swimsuit'
p2277
I1875
sS'thinks'
p2278
I2447
sS'buried'
p2279
I4700
sS'composers'
p2280
I3801
sS'provided'
p2281
I2329
sS'realitytv'
p2282
I3691
sS'poe'
p2283
I4187
sS'unlocked'
p2284
I927
sS'colonial'
p2285
I390
sS'symbiotic'
p2286
I2354
sS'recorded'
p2287
I2077
sS'legal'
p2288
I1211
sS'moon'
p2289
I3591
sS'favourite'
p2290
I3974
sS'natlang'
p2291
I4704
sS'dealership'
p2292
I3872
sS'orchestrated'
p2293
I4916
sS'provides'
p2294
I1401
sS'provider'
p2295
I1400
sS'preceding'
p2296
I4319
sS'snowboarders'
p2297
I3011
sS'measuring'
p2298
I1118
sS'football'
p2299
I743
sS'transformers'
p2300
I986
sS'scientific'
p2301
I3664
sS'business'
p2302
I85
sS'manufactured'
p2303
I2045
sS'chefs'
p2304
I481
sS'notable'
p2305
I21
sS'arts'
p2306
I1928
sS'tuition'
p2307
I2283
sS'trials'
p2308
I326
sS'leadership'
p2309
I2499
sS'i001962'
p2310
I2810
sS'dices'
p2311
I4485
sS'starship'
p2312
I2351
sS'subdiscipline'
p2313
I3879
sS'landcover'
p2314
I460
sS'ontology'
p2315
I405
sS'fairy'
p2316
I2610
sS'manufacturer'
p2317
I632
sS'session'
p2318
I3741
sS'on'
p2319
I580
sS'central'
p2320
I635
sS'stations'
p2321
I1441
sS'of'
p2322
I150
sS'industry'
p2323
I86
sS'theorems'
p2324
I4489
sS'favorite'
p2325
I1259
sS'meaning'
p2326
I1251
sS'commonsprototypes'
p2327
I1827
sS'meal'
p2328
I777
sS'ideology'
p2329
I865
sS'airline'
p2330
I928
sS'act'
p2331
I623
sS'atstcyr'
p2332
I1297
sS'os'
p2333
I2304
sS'processor'
p2334
I547
sS'road'
p2335
I368
sS'tsegaran'
p2336
I10
sS'tribe'
p2337
I3259
sS'client'
p2338
I3474
sS'referenced'
p2339
I521
sS'chivalry'
p2340
I2040
sS'subjacent'
p2341
I4623
sS'multigraph'
p2342
I2587
sS'airliner'
p2343
I280
sS'image'
p2344
I931
sS'skilled'
p2345
I2225
sS'blessed'
p2346
I1980
sS'jfry'
p2347
I2943
sS'breakwater'
p2348
I4344
sS'teeler'
p2349
I2990
sS'gave'
p2350
I4652
sS'references'
p2351
I1331
sS'strip'
p2352
I209
sS'tobaccos'
p2353
I65
sS'observance'
p2354
I2942
sS'feudal'
p2355
I1580
sS'songs1'
p2356
I4474
sS'telescope'
p2357
I2080
sS'her'
p2358
I4490
sS'area'
p2359
I363
sS'gmackenz'
p2360
I2769
sS'alleged'
p2361
I4266
sS'cultured'
p2362
I1377
sS'daepark'
p2363
I760
sS'suceeded'
p2364
I4088
sS'strict'
p2365
I3165
sS'appears'
p2366
I652
sS'outflow'
p2367
I4416
sS'insurance'
p2368
I3636
sS'stars'
p2369
I905
sS'garment'
p2370
I1284
sS'humainoid'
p2371
I4610
sS'materials'
p2372
I2302
sS'shower'
p2373
I2507
sS'distillery'
p2374
I2361
sS'continents'
p2375
I1362
sS'apis'
p2376
I2412
sS'signs'
p2377
I4071
sS'gliding'
p2378
I425
sS'dwiel'
p2379
I4807
sS'cabinet'
p2380
I2181
sS'stalag'
p2381
I1759
sS'suffers'
p2382
I1644
sS'survived'
p2383
I3159
sS'billionaires'
p2384
I2598
sS'clones'
p2385
I2189
sS'e'
I4281
sS'technologies'
p2386
I767
sS'podcast'
p2387
I2859
sS'micahsaul'
p2388
I446
sS'euromaidan'
p2389
I2994
sS'volume'
p2390
I3766
sS'jlweaver'
p2391
I1689
sS'terminus'
p2392
I3187
sS'illustrator'
p2393
I1569
sS'romantic'
p2394
I3796
sS'circulation'
p2395
I2923
sS'offical'
p2396
I2876
sS'default'
p2397
I73
sS'movietheatre'
p2398
I4855
sS'aareas'
p2399
I1975
sS'facetedbrowsing'
p2400
I3846
sS'lexeme'
p2401
I2058
sS'arranger'
p2402
I1307
sS'taught'
p2403
I1404
sS'dubbing'
p2404
I1796
sS'charlatan'
p2405
I4603
sS'builders'
p2406
I1288
sS'beliefs'
p2407
I4412
sS'detailed'
p2408
I1792
sS'impersonator'
p2409
I4196
sS'his'
p2410
I3912
sS'celestial'
p2411
I1028
sS'ad'
p2412
I222
sS'videos'
p2413
I418
sS'phytochemical'
p2414
I936
sS'taste'
p2415
I4711
sS'foundry'
p2416
I4004
sS'damsire'
p2417
I1344
sS'defences'
p2418
I895
sS'moved'
p2419
I3007
sS'sales'
p2420
I3042
sS'watches'
p2421
I781
sS'an'
p2422
I1088
sS'ch'
p2423
I4878
sS'alarm'
p2424
I2399
sS'as'
p2425
I49
sS'intro'
p2426
I4525
sS'at'
p2427
I1358
sS'file'
p2428
I823
sS'formulation'
p2429
I693
sS'proposedprojects'
p2430
I487
sS'watched'
p2431
I3384
sS'skateboarders'
p2432
I2904
sS'hospitals'
p2433
I3131
sS'film'
p2434
I37
sS'jeremy'
p2435
I3357
sS'apocalyptical'
p2436
I4340
sS'genres'
p2437
I396
sS'subtext'
p2438
I864
sS'antenna'
p2439
I1884
sS'bicycling'
p2440
I1511
sS'administered'
p2441
I1508
sS'drivers'
p2442
I3695
sS'hybrid'
p2443
I2367
sS'graduate'
p2444
I1969
sS'field'
p2445
I495
sS'beverage'
p2446
I3854
sS'astronaut'
p2447
I1465
sS'spatial'
p2448
I3348
sS'mathematics'
p2449
I11
sS'kwelle'
p2450
I2960
sS'pascalch'
p2451
I4899
sS'immunity'
p2452
I2490
sS'collectiblecards'
p2453
I1899
sS'cloned'
p2454
I4422
sS'championship'
p2455
I925
sS'congress'
p2456
I688
sS'students'
p2457
I943
sS'symbol'
p2458
I1108
sS'm'
I4866
sS'carnegie'
p2459
I2253
sS'includes'
p2460
I96
sS'podium'
p2461
I2732
sS'important'
p2462
I3857
sS'registry'
p2463
I2047
sS'planners'
p2464
I2926
sS'included'
p2465
I400
sS'spouse'
p2466
I1964
sS'carebears'
p2467
I4259
sS'building'
p2468
I153
sS'sanfranciscoscene'
p2469
I3705
sS'subdivision'
p2470
I4456
sS'assets'
p2471
I3253
sS'tricks'
p2472
I3205
sS'wifi'
p2473
I3220
sS'websites'
p2474
I3723
sS'landfill'
p2475
I2780
sS'negativboy'
p2476
I4624
sS'investigated'
p2477
I3107
sS'mass'
p2478
I1012
sS'pitchman'
p2479
I3581
sS'dialects'
p2480
I2487
sS'apparel'
p2481
I3302
sS'x2010'
p2482
I2972
sS'pak21'
p2483
I1678
sS'songs'
p2484
I484
sS'starting'
p2485
I4460
sS'original'
p2486
I2504
sS'minister'
p2487
I185
sS'irradiance'
p2488
I3448
sS'represent'
p2489
I3430
sS'all'
p2490
I328
sS'semantic'
p2491
I2059
sS'exhibitions'
p2492
I1494
sS'chinese'
p2493
I109
sS'maximum'
p2494
I4841
sS'caused'
p2495
I1215
sS'landlocked'
p2496
I1228
sS'month'
p2497
I3643
sS'founded'
p2498
I1040
sS'spacecraft'
p2499
I1190
sS'coach'
p2500
I1338
sS'tours'
p2501
I996
sS'premiers'
p2502
I3749
sS'handball'
p2503
I2054
sS'follow'
p2504
I3175
sS'fixtures'
p2505
I2379
sS'settlement'
p2506
I1044
sS'religious'
p2507
I1423
sS'children'
p2508
I2747
sS'causes'
p2509
I1133
sS'particles'
p2510
I2246
sS'preserves'
p2511
I1777
sS'icons'
p2512
I3714
sS'tv'
p2513
I144
sS'tw'
p2514
I3192
sS'equivalence'
p2515
I3426
sS'permeability'
p2516
I3090
sS'former'
p2517
I253
sS'prefixes'
p2518
I1388
sS'to'
p2519
I286
sS'tail'
p2520
I802
sS'program'
p2521
I145
sS'preserved'
p2522
I4894
sS'equivalency'
p2523
I4632
sS'siblings'
p2524
I746
sS'carburetor'
p2525
I3961
sS'presentation'
p2526
I1952
sS'ancientegypt'
p2527
I1112
sS'activities'
p2528
I3784
sS'rpasay'
p2529
I4085
sS'bipropellant'
p2530
I1116
sS'typeoffire'
p2531
I1726
sS'song'
p2532
I128
sS'vassal'
p2533
I4236
sS'anandology'
p2534
I4458
sS'translations'
p2535
I1262
sS'resistance'
p2536
I3742
sS'puzzles'
p2537
I1234
sS'medicine'
p2538
I215
sS'gossipgirl'
p2539
I4538
sS'fan'
p2540
I1197
sS'worldwonders'
p2541
I4505
sS'americancivilwar'
p2542
I1757
sS'ticker'
p2543
I2391
sS'condition'
p2544
I1885
sS'conlang'
p2545
I1241
sS'delivery'
p2546
I2980
sS'highways'
p2547
I3396
sS'parliaments'
p2548
I3266
sS'voivodeship'
p2549
I3863
sS'stimulus'
p2550
I3023
sS'evaluation'
p2551
I814
sS'celebrity'
p2552
I199
sS'zenkat'
p2553
I4435
sS'list'
p2554
I796
sS'joined'
p2555
I3349
sS'plotting'
p2556
I3791
sS'greenbuilding'
p2557
I2623
sS'dinosaur'
p2558
I1207
sS'manages'
p2559
I4513
sS'didwho'
p2560
I2136
sS'biological'
p2561
I2699
sS'locomotive'
p2562
I3101
sS'appointment'
p2563
I1893
sS'interactions'
p2564
I3271
sS'neighborhood'
p2565
I1550
sS'portable'
p2566
I3571
sS'tea'
p2567
I2460
sS'skiing'
p2568
I1821
sS'tom000'
p2569
I3570
sS'cash'
p2570
I2909
sS'past'
p2571
I2634
sS'morphology'
p2572
I4500
sS'rate'
p2573
I607
sS'titles'
p2574
I658
sS'design'
p2575
I827
sS'sportsrecords'
p2576
I3341
sS'lawyer'
p2577
I2206
sS'pass'
p2578
I534
sS'humanresources'
p2579
I4016
sS'subspecies'
p2580
I3731
sS'promotes'
p2581
I4797
sS'investment'
p2582
I1222
sS'canonical'
p2583
I1618
sS'cheeses'
p2584
I2480
sS'sue'
p2585
I1047
sS'defence'
p2586
I1323
sS'imported'
p2587
I3876
sS'sub'
p2588
I501
sS'consumers'
p2589
I1864
sS'sportssandbox'
p2590
I4754
sS'sun'
p2591
I1787
sS'wrecked'
p2592
I321
sS'shops'
p2593
I4267
sS'svocab'
p2594
I3657
sS'travelcard'
p2595
I3688
sS'engineeringdraft'
p2596
I2044
sS'version'
p2597
I1619
sS'run'
p2598
I4639
sS'proveit'
p2599
I3928
sS'scientists'
p2600
I3665
sS'tribute'
p2601
I4789
sS'wham'
p2602
I518
sS'racing'
p2603
I370
sS'public'
p2604
I634
sS'movement'
p2605
I1575
sS'markce'
p2606
I3683
sS'edited'
p2607
I255
sS'videogame'
p2608
I2284
sS'full'
p2609
I4532
sS'venerated'
p2610
I4808
sS'specialises'
p2611
I4674
sS'holonym'
p2612
I3901
sS'godchildren'
p2613
I2544
sS'bjcp'
p2614
I4860
sS'musicmanager'
p2615
I4378
sS'component'
p2616
I62
sS'studentenverbindung'
p2617
I2100
sS'surfer'
p2618
I2276
sS'hours'
p2619
I2139
sS'coco'
p2620
I23
sS'tracks'
p2621
I1615
sS'inverse'
p2622
I2311
sS'operating'
p2623
I1360
sS'compressed'
p2624
I758
sS'synopses'
p2625
I800
sS'aubreymaturin'
p2626
I638
sS'ontario'
p2627
I4822
sS'joehughes'
p2628
I250
sS'equations'
p2629
I3345
sS'legend'
p2630
I142
sS'operations'
p2631
I1668
sS'bakeries'
p2632
I2150
sS'publisher'
p2633
I137
sS'speeches'
p2634
I2719
sS'bible'
p2635
I2128
sS'naval'
p2636
I817
sS'conviction'
p2637
I1091
sS'inspired'
p2638
I4094
sS'deities'
p2639
I3987
sS'terminals'
p2640
I2116
sS'experience'
p2641
I3811
sS'philosophies'
p2642
I3668
sS'advisees'
p2643
I4494
sS'airport'
p2644
I2132
sS'periodic'
p2645
I660
sS'advertising'
p2646
I447
sS'numismatics'
p2647
I4794
sS'published'
p2648
I1623
sS'action'
p2649
I3364
sS'mentions'
p2650
I2749
sS'options'
p2651
I3414
sS'warrant'
p2652
I4237
sS'trainer'
p2653
I4295
sS'uroscion'
p2654
I4309
sS'being'
p2655
I2662
sS'via'
p2656
I3789
sS'disposition'
p2657
I2652
sS'family'
p2658
I164
sS'reclaimed'
p2659
I4244
sS'virtualheliosphericobservatory'
p2660
I3728
sS'microbrew'
p2661
I4823
sS'transit'
p2662
I251
sS'amenity'
p2663
I2151
sS'disapproves'
p2664
I3411
sS'movietheatres'
p2665
I1537
sS'follower'
p2666
I581
sS'coolnesfactor'
p2667
I2360
sS'trained'
p2668
I4557
sS'toys'
p2669
I1692
sS'proveniencia'
p2670
I2867
sS'extinction'
p2671
I1083
sS'armed'
p2672
I1773
sS'spawned'
p2673
I2508
sS'legislator'
p2674
I4605
sS'literary'
p2675
I674
sS'subsumes'
p2676
I2349
sS'eye'
p2677
I2488
sS'problems'
p2678
I2790
sS'warship'
p2679
I2243
sS'destination'
p2680
I203
sS'bottled'
p2681
I3558
sS'competitor'
p2682
I2648
sS'amenities'
p2683
I1514
sS'lindenb'
p2684
I2381
sS'taken'
p2685
I3649
sS'injury'
p2686
I1213
sS'markets'
p2687
I4685
sS'installments'
p2688
I3993
sS'minor'
p2689
I2950
sS'more'
p2690
I1898
sS'horses'
p2691
I2431
sS'israel'
p2692
I3040
sS'mellon'
p2693
I2254
sS'substances'
p2694
I3775
sS'descriptors'
p2695
I1516
sS'company'
p2696
I597
sS'printings'
p2697
I1657
sS'spoils'
p2698
I3034
sS'problem'
p2699
I2928
sS'disapprove'
p2700
I4363
sS'tested'
p2701
I2663
sS'flag'
p2702
I1411
sS'controlling'
p2703
I2970
sS'aleph'
p2704
I4398
sS'broke'
p2705
I4430
sS'particular'
p2706
I4449
sS'known'
p2707
I2383
sS'fate'
p2708
I3125
sS'producing'
p2709
I1114
sS'sovereignty'
p2710
I3948
sS'town'
p2711
I3512
sS'evolves'
p2712
I4759
sS'endpoint'
p2713
I3124
sS'sbennett'
p2714
I1664
sS'mbmuhr'
p2715
I2601
sS'science'
p2716
I24
sS'equation'
p2717
I2622
sS'launch'
p2718
I2461
sS'semanticxq'
p2719
I1807
sS'autocomplete'
p2720
I1475
sS'sent'
p2721
I2786
sS'wrestler'
p2722
I2093
sS'male'
p2723
I4049
sS'specialized'
p2724
I2256
sS'professions'
p2725
I3320
sS'history'
p2726
I2459
sS'nightclub'
p2727
I4520
sS'purchases'
p2728
I3858
sS'nbibridge'
p2729
I4467
sS'stampede'
p2730
I1902
sS'scan'
p2731
I2197
sS'gossipgirlxxx'
p2732
I3762
sS'galleries'
p2733
I2820
sS'share'
p2734
I1782
sS'states'
p2735
I344
sS'prose'
p2736
I4336
sS'coltrane'
p2737
I4057
sS'rise'
p2738
I3149
sS'famousobjects'
p2739
I1684
sS'numbers'
p2740
I2686
sS'purchased'
p2741
I1604
sS'sense'
p2742
I1740
sS'thesocialset'
p2743
I975
sS'bikespeed'
p2744
I1625
sS'dylanrocks'
p2745
I1799
sS'species'
p2746
I115
sS'bonded'
p2747
I308
sS'information'
p2748
I212
sS'needs'
p2749
I1860
sS'court'
p2750
I1299
sS'processors'
p2751
I4450
sS'skosbase'
p2752
I391
sS'obverse'
p2753
I1778
sS'acts'
p2754
I1455
sS'csa'
p2755
I3146
sS'centreforeresearch'
p2756
I839
sS'maps'
p2757
I3429
sS'possibly'
p2758
I3943
sS'movements'
p2759
I1460
sS'specializations'
p2760
I738
sS'creature'
p2761
I259
sS'plant'
p2762
I287
sS'rcstype'
p2763
I4337
sS'galactic'
p2764
I530
sS'intended'
p2765
I3781
sS'cremation'
p2766
I4230
sS'localfood'
p2767
I1450
sS'ajedi32'
p2768
I3171
sS'derived'
p2769
I493
sS'orbits'
p2770
I1422
sS'juniorbonner'
p2771
I788
sS'soundtrack'
p2772
I1282
sS'referent'
p2773
I2561
sS'catalog'
p2774
I3370
sS'dsp13'
p2775
I812
sS'adventure'
p2776
I1626
sS'bioinformatics'
p2777
I2983
sS'choice'
p2778
I1632
sS'concerns'
p2779
I4696
sS'a'
I1170
sS'e26'
p2780
I575
sS'short'
p2781
I1555
sS'damsbase'
p2782
I3630
sS'automobiles'
p2783
I4622
sS'coat'
p2784
I797
sS'supergame'
p2785
I4131
sS'documentation'
p2786
I1464
sS'thewire'
p2787
I1646
sS'exhibited'
p2788
I3740
sS'generic'
p2789
I2493
sS'scenicbyways'
p2790
I1347
sS'fundamental'
p2791
I2712
sS'media'
p2792
I54
sS'banks'
p2793
I1224
sS'ethnicities'
p2794
I3779
sS'geographic'
p2795
I1274
sS'playing'
p2796
I1160
sS'traders'
p2797
I4933
sS'euphemism'
p2798
I3977
sS'grantee'
p2799
I4751
sS'help'
p2800
I4599
sS'reservoir'
p2801
I550
sS'developed'
p2802
I2241
sS'advised'
p2803
I920
sS'mission'
p2804
I1399
sS'cyclists'
p2805
I2475
sS'trade'
p2806
I1256
sS'disabled'
p2807
I1192
sS'held'
p2808
I1734
sS'runner'
p2809
I1974
sS'embassy'
p2810
I1386
sS'through'
p2811
I1520
sS'committee'
p2812
I690
sS'replies'
p2813
I3218
sS'existence'
p2814
I3797
sS'turbine'
p2815
I4316
sS'features'
p2816
I2227
sS'style'
p2817
I174
sS'possessions'
p2818
I3135
sS'call'
p2819
I2114
sS'ko'
p2820
I4830
sS'dish1'
p2821
I4568
sS'alexbl'
p2822
I1497
sS'symptoms'
p2823
I1943
sS'researcher'
p2824
I3006
sS'individuals'
p2825
I3438
sS'systems'
p2826
I121
sS'researches'
p2827
I2839
sS'founders'
p2828
I1697
sS'curiousity'
p2829
I3160
sS'paths'
p2830
I4887
sS'soccer'
p2831
I1603
sS'sauce'
p2832
I2427
sS'alter'
p2833
I1634
sS'dolls'
p2834
I4859
sS'thoroughbred'
p2835
I748
sS'skipped'
p2836
I1437
sS'motivated'
p2837
I1934
sS'food'
p2838
I309
sS'state12'
p2839
I3053
sS'gadget'
p2840
I785
sS'olivergbayley'
p2841
I2455
sS'videotaped'
p2842
I1189
sS'bitwiseplatypus'
p2843
I4017
sS'satelites'
p2844
I2258
sS'units'
p2845
I822
sS'strongest'
p2846
I4239
sS'rank'
p2847
I505
sS'compound'
p2848
I1167
sS'communities'
p2849
I3025
sS'flammable'
p2850
I4104
sS'animation'
p2851
I4679
sS'association'
p2852
I3729
sS'mystery'
p2853
I641
sS'insurers'
p2854
I4223
sS'vanhomeless'
p2855
I2145
sS'mathematician'
p2856
I4488
sS'presented'
p2857
I1122
sS'crmbase'
p2858
I3810
sS'tracypoff'
p2859
I4879
sS'denny'
p2860
I993
sS'courses'
p2861
I699
sS'memorial'
p2862
I4009
sS'nris'
p2863
I751
sS'exiled'
p2864
I2835
sS'knight'
p2865
I2944
sS'found'
p2866
I579
sS'athletics'
p2867
I890
sS'front'
p2868
I4059
sS'friendship'
p2869
I4837
sS'ports'
p2870
I1371
sS'week'
p2871
I4764
sS'pirates'
p2872
I101
sS'weight'
p2873
I70
sS'generation'
p2874
I1724
sS'house'
p2875
I689
sS'fish'
p2876
I1733
sS'computerscience'
p2877
I737
sS'idea'
p2878
I2505
sS'pirated'
p2879
I104
sS'finish'
p2880
I1627
sS'measurement'
p2881
I820
sS'supertype'
p2882
I2289
sS'operation'
p2883
I1682
sS'murders'
p2884
I2570
sS'event'
p2885
I76
sS'really'
p2886
I4042
sS'impersonation'
p2887
I3310
sS'flower'
p2888
I4110
sS'funding'
p2889
I2861
sS'itemtype'
p2890
I4119
sS'presenter'
p2891
I4766
sS'robert'
p2892
I88
sS'surrounded'
p2893
I1229
sS'projected'
p2894
I3129
sS'research'
p2895
I728
sS'participants'
p2896
I2725
sS'health'
p2897
I325
sS'cyclone'
p2898
I1642
sS'tactician'
p2899
I2885
sS'issue'
p2900
I1106
sS'meteorological'
p2901
I1643
sS'highway'
p2902
I2065
sS'meteoric'
p2903
I313
sS'locally'
p2904
I4618
sS'causalevent'
p2905
I2518
sS'fiber'
p2906
I2154
sS'solvent'
p2907
I3737
sS'belief'
p2908
I1973
sS'housed'
p2909
I2102
sS'academyawards'
p2910
I3614
sS'favored'
p2911
I1260
sS'timeline'
p2912
I4564
sS'ciphers'
p2913
I2969
sS'horse'
p2914
I960
sS'pub'
p2915
I3532
sS'effect'
p2916
I2832
sS'reason'
p2917
I2018
sS'base'
p2918
I15
sS'members'
p2919
I263
sS'clique'
p2920
I976
sS'mma'
p2921
I3358
sS'wastrology'
p2922
I1126
sS'epicenter'
p2923
I3240
sS'temperature'
p2924
I2416
sS'revolutionary'
p2925
I4030
sS'producers'
p2926
I1921
sS'owners'
p2927
I942
sS'antigenic'
p2928
I3675
sS'benefits'
p2929
I3209
sS'thread'
p2930
I566
sS'v1'
p2931
I2244
sS'sitting'
p2932
I4569
sS'finland'
p2933
I1866
sS'onlineadvertising'
p2934
I221
sS'excavated'
p2935
I4493
sS'flipmozart'
p2936
I1667
sS'propellant'
p2937
I4581
sS'american'
p2938
I742
sS'circuit'
p2939
I3398
sS'tickets'
p2940
I4771
sS'existential'
p2941
I1737
sS'apocalypse'
p2942
I2641
sS'lawsuits'
p2943
I1826
sS'partnerships'
p2944
I2692
sS'feed'
p2945
I1095
sS'promoted'
p2946
I2676
sS'major'
p2947
I762
sS'bisac'
p2948
I3013
sS'ddammann'
p2949
I700
sS'pests'
p2950
I3873
sS'misc'
p2951
I2568
sS'number'
p2952
I1608
sS'preservation'
p2953
I1776
sS'traveled'
p2954
I2343
sS'celeb'
p2955
I4164
sS'instances'
p2956
I528
sS'sailor'
p2957
I3440
sS'typefaces'
p2958
I491
sS'inhibits'
p2959
I1303
sS'jazz'
p2960
I4058
sS'eventparticipants'
p2961
I3037
sS'dissertation'
p2962
I4678
sS'firsts'
p2963
I2501
sS'spree'
p2964
I4246
sS'verifiable'
p2965
I3661
sS'remodelers'
p2966
I3869
sS'tonyteknision'
p2967
I2801
sS'story'
p2968
I593
sS'hangy'
p2969
I1675
sS'guest'
p2970
I231
sS'script'
p2971
I3793
sS'automobile'
p2972
I1665
sS'interviews'
p2973
I4418
sS'intezmeny'
p2974
I3999
sS'stadiums'
p2975
I3199
sS'paint'
p2976
I1698
sS'regulation'
p2977
I97
sS'station'
p2978
I288
sS'identity'
p2979
I3470
sS'passed'
p2980
I335
sS'show'
p2981
I1542
sS'siswimsuitmodels'
p2982
I1873
sS'founder'
p2983
I1577
sS'scheme'
p2984
I1223
sS'store'
p2985
I3047
sS'schema'
p2986
I1523
sS'rollerderby'
p2987
I2654
sS'statement'
p2988
I2438
sS'relationship'
p2989
I278
sS'spaceports'
p2990
I3867
sS'plantstructure'
p2991
I4066
sS'jamie'
p2992
I588
sS'park'
p2993
I1291
sS'mylittlepony'
p2994
I3910
sS'veteran'
p2995
I4312
sS'dentist'
p2996
I3308
sS'optical'
p2997
I1124
sS'cartridges'
p2998
I3258
sS'authors'
p2999
I3415
sS'franchises'
p3000
I4825
sS'petsupplyandaccessory'
p3001
I3301
sS'albums'
p3002
I2068
sS'interviewer'
p3003
I3720
sS'hobbyist'
p3004
I3923
sS'kind'
p3005
I1993
sS'compartment'
p3006
I1376
sS'namesake'
p3007
I34
sS'inducted'
p3008
I1019
sS'inductee'
p3009
I1334
sS'collaborations'
p3010
I4782
sS'double'
p3011
I2294
sS'dikes'
p3012
I4664
sS'vocal'
p3013
I3087
sS'recording'
p3014
I860
sS'stu'
p3015
I1786
sS'danm'
p3016
I1474
sS'architect'
p3017
I458
sS'geotagged'
p3018
I1829
sS'contractbridge'
p3019
I2696
sS'tonality'
p3020
I1098
sS'builder'
p3021
I1534
sS'normal'
p3022
I3681
sS'motivation'
p3023
I2706
sS'phobia'
p3024
I2056
sS'derivative'
p3025
I3156
sS'nominee'
p3026
I1272
sS'interviewee'
p3027
I4178
sS'coolant'
p3028
I2671
sS'constructors'
p3029
I4037
sS'emperors'
p3030
I3098
sS'juice'
p3031
I3543
sS'antarctica'
p3032
I4809
sS'rewards'
p3033
I3152
sS'alike'
p3034
I2174
sS'showers'
p3035
I880
sS'sentences'
p3036
I1317
sS'concentration'
p3037
I2709
sS'rushing'
p3038
I3586
sS'orders'
p3039
I3071
sS'option'
p3040
I2957
sS'ratings'
p3041
I133
sS'built'
p3042
I1536
sS'superior'
p3043
I3886
sS'hypervelocity'
p3044
I3963
sS'bio2rdf'
p3045
I218
sS'sections'
p3046
I4539
sS'tableau'
p3047
I4371
sS'bacteria'
p3048
I3408
sS'lit'
p3049
I1574
sS'also'
p3050
I2057
sS'appellate'
p3051
I2774
sS'build'
p3052
I2966
sS'commentary'
p3053
I4349
sS'drinks'
p3054
I3997
sS'collord'
p3055
I1530
sS'afraz'
p3056
I1743
sS'province'
p3057
I806
sS'play'
p3058
I832
sS'hotel'
p3059
I1359
sS'electric'
p3060
I1439
sS'index'
p3061
I4195
sS'popular'
p3062
I2771
sS'victim'
p3063
I2141
sS'architects'
p3064
I4320
sS'tryst'
p3065
I2772
sS'location11'
p3066
I4400
sS'peripherals'
p3067
I2466
sS'virus'
p3068
I504
sS'sponsored'
p3069
I2608
sS'kav'
p3070
I1472
sS'significant'
p3071
I753
sS'posting'
p3072
I3374
sS'services'
p3073
I78
sS'seasons'
p3074
I2721
sS'engagements'
p3075
I4384
sS'measured'
p3076
I1910
sS'had'
p3077
I4045
sS'achievement'
p3078
I2439
sS'hthorisson'
p3079
I3232
sS'salary'
p3080
I3082
sS'hoilday'
p3081
I3958
sS'twinnedtowns'
p3082
I3510
sS'audio'
p3083
I2076
sS'mineral'
p3084
I2737
sS'mobile'
p3085
I896
sS'performances'
p3086
I1123
sS'nail'
p3087
I3526
sS'barbie'
p3088
I3114
sS'cover'
p3089
I462
sS'sells'
p3090
I4680
sS'traditional'
p3091
I4735
sS'charitable'
p3092
I3500
sS'part'
p3093
I594
sS'bodies'
p3094
I2595
sS'doconnor'
p3095
I1843
sS'hornblower'
p3096
I1417
sS'symset'
p3097
I2745
sS'newest'
p3098
I4262
sS'charged'
p3099
I4920
sS'organism'
p3100
I923
sS'institutions'
p3101
I4172
sS'nobility'
p3102
I585
sS'sector'
p3103
I182
sS'programm'
p3104
I3244
sS'boardgames'
p3105
I4129
sS'golf'
p3106
I696
sS'gold'
p3107
I3759
sS'blended'
p3108
I3100
sS'doctors'
p3109
I3637
sS'celebrities'
p3110
I198
sS'supercedes'
p3111
I2766
sS'wasted'
p3112
I4288
sS'trailhead'
p3113
I3170
sS'relation'
p3114
I1226
sS'stores'
p3115
I3938
sS'superceded'
p3116
I586
sS'permaculture'
p3117
I1859
sS'translation'
p3118
I2129
sS'gromul'
p3119
I1753
sS'occupation'
p3120
I3075
sS'e19'
p3121
I4354
sS'access'
p3122
I1381
sS'nicknames'
p3123
I4723
sS'merger'
p3124
I1752
sS'collaborators'
p3125
I3084
sS'writes'
p3126
I4394
sS'cdnpolitics'
p3127
I3225
sS'distributed'
p3128
I2527
sS'harrypotter'
p3129
I3463
sS'affiliations'
p3130
I1005
sS'enzyme'
p3131
I1301
sS'randy'
p3132
I4546
sS'factor'
p3133
I899
sS'8'
I362
sS'distributes'
p3134
I4444
sS'columns'
p3135
I1085
sS'meme'
p3136
I4527
sS'villian'
p3137
I3334
sS'dancers'
p3138
I3262
sS'founding'
p3139
I1038
sS'permission'
p3140
I1992
sS'financialmeltdown'
p3141
I4931
sS'banned'
p3142
I289
sS'ceasing'
p3143
I2762
sS'grocery'
p3144
I4111
sS'famous'
p3145
I1685
sS'revered'
p3146
I3251
sS'observatory'
p3147
I2079
sS'knighted'
p3148
I2945
sS'fastest'
p3149
I4243
sS'reply'
p3150
I3119
sS'combinations'
p3151
I4324
sS'referencing'
p3152
I517
sS'terminating'
p3153
I4701
sS'adoptive'
p3154
I3381
sS'cuvwolf'
p3155
I3949
sS'alexander'
p3156
I349
sS'opposed1'
p3157
I4854
sS'crp'
p3158
I2476
sS'appeal'
p3159
I3116
sS'roles'
p3160
I1394
sS'dharmatech'
p3161
I4732
sS'brendan'
p3162
I1308
sS'performers'
p3163
I3927
sS'testifying'
p3164
I2550
sS'batteries'
p3165
I3481
sS'bird'
p3166
I2845
sS'banking'
p3167
I1221
sS'common'
p3168
I19
sS'scholastic'
p3169
I3578
sS'activity'
p3170
I247
sS'switzerland'
p3171
I4877
sS'x'
I917
sS'archaeologist'
p3172
I3268
sS'river'
p3173
I2266
sS'hailey2009'
p3174
I108
sS'wrote'
p3175
I3841
sS'restaurants'
p3176
I778
sS'signatures'
p3177
I4502
sS'bars'
p3178
I4930
sS'set'
p3179
I18
sS'art'
p3180
I195
sS'choreographer'
p3181
I1024
sS'creator'
p3182
I507
sS'locale'
p3183
I1841
sS'organ'
p3184
I4318
sS'activists'
p3185
I4633
sS'dioceses'
p3186
I378
sS'choreographed'
p3187
I1025
sS'employedby'
p3188
I4563
sS'lenght'
p3189
I4537
sS'arc'
p3190
I595
sS'descriptions'
p3191
I4013
sS'sea'
p3192
I894
sS'sacred'
p3193
I4746
sS'explosion'
p3194
I1767
sS'geologic'
p3195
I1081
sS'constellation'
p3196
I878
sS'paul'
p3197
I2824
sS'dwarf'
p3198
I3441
sS'alcoholic'
p3199
I3853
sS'regulator'
p3200
I2051
sS'languoid'
p3201
I1819
sS'revolution'
p3202
I4031
sS'spirits'
p3203
I434
sS'expert'
p3204
I2833
sS'handed'
p3205
I3972
sS'aqueduct'
p3206
I4529
sS'astrologicalrulership'
p3207
I1128
sS'superseded'
p3208
I4177
sS'leg'
p3209
I4386
sS'electoral'
p3210
I1442
sS'supersets'
p3211
I4209
sS'libraries'
p3212
I2965
sS'representatives'
p3213
I3724
sS'unions'
p3214
I1257
sS'won'
p3215
I1486
sS'amphora'
p3216
I3557
sS'orbiting'
p3217
I2594
sS'marriage'
p3218
I1521
sS'conditions'
p3219
I3804
sS'funeral'
p3220
I3452
sS'available'
p3221
I1060
sS'solo'
p3222
I2092
sS'catalogs'
p3223
I4787
sS'godparents'
p3224
I2542
sS'do'
p3225
I4592
sS'buoys'
p3226
I3733
sS'premises'
p3227
I4377
sS'robberies'
p3228
I3769
sS'sold'
p3229
I476
sS'coinsdaily'
p3230
I1712
sS'presidentialpets'
p3231
I3221
sS'philanthropist'
p3232
I4750
sS'usnris'
p3233
I750
sS'ranked'
p3234
I1683
sS'kryp'
p3235
I2358
sS'notreadbyhumans'
p3236
I170
sS'genre'
p3237
I7
sS'console'
p3238
I4091
sS'bibs'
p3239
I1959
sS'robinboast'
p3240
I4598
sS'mla'
p3241
I4171
sS'bronze'
p3242
I3162
sS'armoryshow1913'
p3243
I3739
sS'legislature'
p3244
I3582
sS'league'
p3245
I556
sS'defunct'
p3246
I2761
sS'paradigms'
p3247
I437
sS'cryptid'
p3248
I1783
sS'reverse'
p3249
I787
sS'license'
p3250
I1972
sS'restaurant'
p3251
I1458
sS'treated'
p3252
I3376
sS'brothels'
p3253
I667
sS'waterfall'
p3254
I4434
sS'mikeshwe'
p3255
I1628
sS'roman'
p3256
I1204
sS'became'
p3257
I1055
sS'fraternity'
p3258
I733
sS'boxers'
p3259
I2951
sS'dsinclair'
p3260
I388
sS'health20accelerator'
p3261
I3952
sS'apocalyptic'
p3262
I2638
sS'finds'
p3263
I4442
sS'topographical'
p3264
I4251
sS'clone'
p3265
I2188
sS'geolocation'
p3266
I1828
sS'distributors'
p3267
I3721
sS'subdivides'
p3268
I3444
sS'jeff'
p3269
I1052
sS'battery'
p3270
I419
sS'acted'
p3271
I4156
sS'recycling'
p3272
I1596
sS'corresponds'
p3273
I3265
sS'harbour'
p3274
I893
sS'dances'
p3275
I3642
sS'dietary'
p3276
I1318
sS'regulated'
p3277
I4257
sS'adaptation'
p3278
I55
sS'church'
p3279
I377
sS'vessel'
p3280
I1842
sS'pyramids'
p3281
I4714
sS'develops'
p3282
I2902
sS'horticulture'
p3283
I385
sS'consuming'
p3284
I2650
sS'java'
p3285
I3305
sS'publishing'
p3286
I887
sS'originators'
p3287
I3439
sS'meteorite'
p3288
I2756
sS'stamp'
p3289
I3287
sS'dams'
p3290
I552
sS'secialties'
p3291
I4559
sS'political'
p3292
I684
sS'verse'
p3293
I4708
sS'teacher'
p3294
I702
sS'convicted'
p3295
I2226
sS'rivals'
p3296
I687
sS'secret'
p3297
I3222
sS'movgp0'
p3298
I1045
sS'audiobase'
p3299
I3903
sS'thalendar'
p3300
I2346
sS'imports'
p3301
I3425
sS'collaborator'
p3302
I1397
sS'adoption'
p3303
I3435
sS'territory'
p3304
I3312
sS'meeting'
p3305
I1419
sS'labour'
p3306
I3934
sS'firm'
p3307
I2207
sS'citytown'
p3308
I2806
sS'lived'
p3309
I995
sS'flight'
p3310
I282
sS'champion'
p3311
I3227
sS'fire'
p3312
I342
sS'honorary'
p3313
I2278
sS'citizen'
p3314
I4715
sS'gas'
p3315
I2118
sS'modelling'
p3316
I4167
sS'waypoints'
p3317
I1779
sS'defensive'
p3318
I3629
sS'complements'
p3319
I4447
sS'races'
p3320
I961
sS'representative'
p3321
I2200
sS'folklore'
p3322
I981
sS'temperament'
p3323
I870
sS'exooo'
p3324
I1817
sS'towns'
p3325
I964
sS'instructor'
p3326
I3503
sS'plants'
p3327
I1468
sS'extracted'
p3328
I3121
sS'highest'
p3329
I2996
sS'stolen'
p3330
I1933
sS'politician'
p3331
I714
sS'resulting'
p3332
I858
sS'grains'
p3333
I4791
sS'solid'
p3334
I3409
sS'judicial'
p3335
I2396
sS'straight'
p3336
I2295
sS'canadian'
p3337
I2138
sS'jewishcommunities'
p3338
I2228
sS'budget'
p3339
I3918
sS'evaluated'
p3340
I815
sS'iucn'
p3341
I3145
sS'replaced'
p3342
I3092
sS'formats'
p3343
I759
sS'fleet'
p3344
I2702
sS'guide'
p3345
I1519
sS'engineers'
p3346
I2783
sS'kwtopic'
p3347
I741
sS'lodges'
p3348
I2166
sS'larger'
p3349
I3611
sS'wild'
p3350
I2947
sS'plutoid'
p3351
I4074
sS'binding'
p3352
I2788
sS'faceted'
p3353
I3847
sS'haunts'
p3354
I1023
sS'hoax'
p3355
I643
sS'rulers'
p3356
I2214
sS'gamigo'
p3357
I4222
sS'moonhouse'
p3358
I1881
sS'rig'
p3359
I2635
sS'ethnicity'
p3360
I1931
sS'subforms'
p3361
I4275
sS'glsheldo'
p3362
I3633
sS'cuisine'
p3363
I480
sS'gorans'
p3364
I2971
sS'grant'
p3365
I4072
sS'perpetrator'
p3366
I1586
sS'thesis'
p3367
I4724
sS'parishes'
p3368
I1073
sS'truereligion'
p3369
I1065
sS'textile'
p3370
I2082
sS'rules'
p3371
I3634
sS'muscle'
p3372
I2541
sS'classifcation'
p3373
I4542
sS'grand'
p3374
I1341
sS'9'
I1917
sS'products'
p3375
I520
sS'composition'
p3376
I314
sS'conflict'
p3377
I1911
sS'higher'
p3378
I474
sS'development'
p3379
I3467
sS'heraldry'
p3380
I438
sS'used'
p3381
I48
sS'bsocbase'
p3382
I2286
sS'curators'
p3383
I3689
sS'mountain'
p3384
I533
sS'eligibile'
p3385
I4889
sS'calendars'
p3386
I4141
sS'gallery'
p3387
I3173
sS'island'
p3388
I3433
sS'dataworld'
p3389
I211
sS'holidays'
p3390
I2545
sS'domains'
p3391
I3085
sS'allocation'
p3392
I2974
sS'levels'
p3393
I2440
sS'uses'
p3394
I941
sS'purpose'
p3395
I553
sS'tigerlight'
p3396
I4473
sS'cityscape'
p3397
I617
sS'infused'
p3398
I1970
sS'jerols'
p3399
I3666
sS'nickname'
p3400
I1703
sS'focal'
p3401
I868
sS'recent'
p3402
I3860
sS'purebred'
p3403
I2465
sS'lower'
p3404
I924
sS'task'
p3405
I1275
sS'database'
p3406
I271
sS'chickens'
p3407
I2863
sS'compilation'
p3408
I4904
sS'honor'
p3409
I3174
sS'person'
p3410
I754
sS'synopsis'
p3411
I801
sS'historic'
p3412
I2539
sS'flags'
p3413
I1412
sS'involves'
p3414
I2131
sS'bobomisiu'
p3415
I3669
sS'famouspets'
p3416
I2874
sS'theatres'
p3417
I1541
sS'organization'
p3418
I467
sS'abandonment'
p3419
I3321
sS'chemistry'
p3420
I659
sS'aptamer'
p3421
I2292
sS'prevention'
p3422
I4061
sS'preference'
p3423
I1553
sS'holmes'
p3424
I2457
sS'titled'
p3425
I3968
sS'cave'
p3426
I1011
sS'honored'
p3427
I4498
sS'facial'
p3428
I3086
sS'cultivars'
p3429
I4132
sS'cuisines'
p3430
I424
sS'observed'
p3431
I3921
sS'settlements'
p3432
I3041
sS'competitive'
p3433
I224
sS'reviewed'
p3434
I1148
sS'db'
p3435
I4795
sS'marque'
p3436
I2979
sS'shape'
p3437
I1567
sS'sysrun'
p3438
I3257
sS'using'
p3439
I1673
sS'reviewer'
p3440
I3350
sS'alternative'
p3441
I1848
sS'continent'
p3442
I1247
sS'subcategory'
p3443
I3070
sS'discipline'
p3444
I2002
sS'socialdance'
p3445
I2262
sS'postal'
p3446
I1449
sS'cup'
p3447
I830
sS'informal'
p3448
I3953
sS'motorsport'
p3449
I3103
sS'admission'
p3450
I2782
sS'alternate'
p3451
I1687
sS'cemetery'
p3452
I2229
sS'humanoid'
p3453
I526
sS'contractor'
p3454
I4426
sS'source'
p3455
I213
sS'governmental'
p3456
I988
sS'subjects'
p3457
I6
sS'parents'
p3458
I2556
sS'location'
p3459
I59
sS'input'
p3460
I992
sS'mod'
p3461
I4706
sS'administrative'
p3462
I1142
sS'exoplanet'
p3463
I2685
sS'collected'
p3464
I3907
sS'associations'
p3465
I4173
sS'szaijan'
p3466
I2672
sS'complaint'
p3467
I3036
sS'vendor'
p3468
I1651
sS'amended'
p3469
I1457
sS'emergency'
p3470
I356
sS'format'
p3471
I824
sS'situation'
p3472
I3800
sS'bid'
p3473
I2034
sS'garykim'
p3474
I4012
sS'aggregation'
p3475
I3368
sS'judgement'
p3476
I2775
sS'game'
p3477
I162
sS'ecosystems'
p3478
I2628
sS'subfamily'
p3479
I4713
sS'bir'
p3480
I918
sS'projects'
p3481
I1772
sS'formal'
p3482
I2836
sS'pertinent'
p3483
I4862
sS'cognitive'
p3484
I1808
sS'cycleroute'
p3485
I2376
sS'follows'
p3486
I582
sS'signal'
p3487
I1589
sS'capitals'
p3488
I2468
sS'snowboard'
p3489
I4000
sS'rider'
p3490
I4353
sS'flux'
p3491
I3248
sS'addressee'
p3492
I1390
sS'indication'
p3493
I4820
sS'definition'
p3494
I4648
sS'translators'
p3495
I4727
sS'nutrients'
p3496
I2784
sS'translated'
p3497
I1261
sS'eed'
p3498
I3015
sS'fault'
p3499
I2095
sS'disorder'
p3500
I3969
sS'endorser'
p3501
I2130
sS'permittivity'
p3502
I2739
sS'privately'
p3503
I3214
sS'mathematical'
p3504
I12
sS'grouped'
p3505
I4705
sS'sketch'
p3506
I430
sS'ecology'
p3507
I1239
sS'gardening'
p3508
I2006
sS'methods'
p3509
I2029
sS'collectors'
p3510
I4090
sS'diocese'
p3511
I4756
sS'senate'
p3512
I4903
sS'freebase'
p3513
I28
sS'mediapackage'
p3514
I3216
sS'creation'
p3515
I3185
sS'martial'
p3516
I1927
sS'litter'
p3517
I1816
sS'added'
p3518
I3195
sS'examples'
p3519
I2920
sS'cleaners'
p3520
I3738
sS'universes'
p3521
I2204
sS'sprint'
p3522
I1489
sS'aporath'
p3523
I3356
sS'sauces'
p3524
I2646
sS'freebass'
p3525
I1663
sS'macronutrient'
p3526
I4576
sS'yachts'
p3527
I4608
sS'scale'
p3528
I2639
sS'floral'
p3529
I3696
sS'jewelry'
p3530
I966
sS'propulsion'
p3531
I4543
sS'pet'
p3532
I1942
sS'decision'
p3533
I2704
sS'veterinary'
p3534
I3056
sS'milled'
p3535
I3815
sS'gcmd'
p3536
I398
sS'per'
p3537
I2889
sS'prop'
p3538
I1981
sS'competitions'
p3539
I1855
sS'religion'
p3540
I636
sS'monastery'
p3541
I3621
sS'anne'
p3542
I1048
sS'commentator'
p3543
I4872
sS'digitized'
p3544
I3284
sS'eating'
p3545
I296
sS'johnmarshall'
p3546
I2421
sS'ufo'
p3547
I1566
sS'bm'
p3548
I1059
sS'costumer'
p3549
I4328
sS'lakes'
p3550
I2201
sS'refused'
p3551
I3933
sS'datedlocationtest'
p3552
I1749
sS'bv'
p3553
I873
sS'prova'
p3554
I4148
sS'br'
p3555
I2078
sS'output'
p3556
I354
sS'lottery'
p3557
I3208
sS'article'
p3558
I3870
sS'drinkware'
p3559
I2666
sS'by'
p3560
I241
sS'vaccine'
p3561
I3069
sS'anatomy'
p3562
I2908
sS'pipeline'
p3563
I156
sS'goods'
p3564
I3460
sS'bjoernz'
p3565
I3579
sS'netflix'
p3566
I394
sS'saf'
p3567
I2269
sS'ids'
p3568
I3299
sS'mgvh'
p3569
I1000
sS'surfers'
p3570
I3565
sS'drama'
p3571
I2777
sS'range'
p3572
I535
sS'involving'
p3573
I4070
sS'extensions'
p3574
I4684
sS'fbontology'
p3575
I4885
sS'shareholder'
p3576
I3750
sS'ide'
p3577
I4733
sS'gambit'
p3578
I4022
sS'block'
p3579
I662
sS'plan'
p3580
I3524
sS'credible'
p3581
I3777
sS'nanopub'
p3582
I3905
sS'computational'
p3583
I2958
sS'eaten'
p3584
I3808
sS'terrorists'
p3585
I4408
sS'digraph'
p3586
I3417
sS'hometown'
p3587
I4902
sS'aliens'
p3588
I1565
sS'within'
p3589
I348
sS'retailer'
p3590
I2017
sS'operational'
p3591
I4482
sS'locus'
p3592
I2831
sS'occurring'
p3593
I4238
sS'phase'
p3594
I2905
sS'stampedes'
p3595
I1903
sS'selected'
p3596
I4134
sS'biblioness'
p3597
I1958
sS'accepting'
p3598
I4630
sS'contributor'
p3599
I1936
sS'handedness'
p3600
I2564
sS'pace'
p3601
I4645
sS'nobel'
p3602
I3255
sS'bezel'
p3603
I3592
sS'canal'
p3604
I3095
sS'statistics'
p3605
I268
sS'helynev'
p3606
I4803
sS'x2010fifaworldcupsouthafrica'
p3607
I828
sS'internetmemes'
p3608
I4526
sS'doll'
p3609
I3115
sS'parties'
p3610
I3392
sS'long'
p3611
I1271
sS'capacitance'
p3612
I2722
sS'vendors'
p3613
I3431
sS'asteroid'
p3614
I938
sS'infected'
p3615
I2320
sS'oxidizer'
p3616
I2281
sS'reward'
p3617
I3035
sS'certification'
p3618
I2625
sS'spas'
p3619
I1279
sS'wearing'
p3620
I3290
sS'metaweb'
p3621
I904
sS'belonged'
p3622
I3680
sS'opponent'
p3623
I3289
sS'cleaning'
p3624
I3736
sS'mountains'
p3625
I2203
sS'jimrowson'
p3626
I3925
sS'radiant'
p3627
I4693
sS'jewish'
p3628
I1231
sS'registered'
p3629
I2798
sS'tally'
p3630
I1037
sS'trs80'
p3631
I2330
sS'specialty'
p3632
I1346
sS'numismatic'
p3633
I2452
sS'symbolized'
p3634
I1383
sS'sdf'
p3635
I4813
sS'link'
p3636
I3947
sS'library'
p3637
I633
sS'branch'
p3638
I2073
sS'subsidiary'
p3639
I1716
sS'line'
p3640
I591
sS'residencies'
p3641
I4762
sS'outpost'
p3642
I4811
sS'posted'
p3643
I4123
sS'directed'
p3644
I1199
sS'motive'
p3645
I1935
sS'partitioning'
p3646
I3501
sS'guidebooks'
p3647
I4250
sS'copywriter'
p3648
I4453
sS'de'
p3649
I2345
sS'declarations'
p3650
I357
sS'social'
p3651
I3508
sS'up'
p3652
I1252
sS'us'
p3653
I358
sS'planet'
p3654
I352
sS'good'
p3655
I4448
sS'insturments'
p3656
I4654
sS'customers'
p3657
I4376
sS'cue'
p3658
I4731
sS'foodiefieldguide'
p3659
I910
sS'kerksieck'
p3660
I2621
sS'export'
p3661
I2900
sS'autonomous'
p3662
I934
sS'similar'
p3663
I983
sS'professor'
p3664
I1968
sS'venkytv'
p3665
I4524
sS'camp'
p3666
I2710
sS'associated'
p3667
I1352
sS'hobby'
p3668
I2337
sS'expedition'
p3669
I1887
sS'defined'
p3670
I1099
sS'alumni'
p3671
I657
sS'interment'
p3672
I4641
sS'influence'
p3673
I1961
sS'doesn'
p3674
I3798
sS'images'
p3675
I4777
sS'engineering'
p3676
I116
sS'journal'
p3677
I2768
sS'rally'
p3678
I3186
sS'modeling'
p3679
I4662
sS'kesava'
p3680
I841
sS'codes'
p3681
I1784
sS'riot'
p3682
I2754
sS'loser'
p3683
I4512
sS'hint'
p3684
I2007
sS'peace'
p3685
I3132
sS'inaugurations'
p3686
I1480
sS'resistances'
p3687
I3922
sS'application'
p3688
I252
sS'politicians'
p3689
I3829
sS'kp'
p3690
I4469
sS'electrical'
p3691
I2024
sS'genome'
p3692
I645
sS'spabase'
p3693
I4252
sS'songsfromtv'
p3694
I1067
sS'department'
p3695
I979
sS'sails'
p3696
I1286
sS'revision'
p3697
I3298
sS'manveru'
p3698
I511
sS'yarnover'
p3699
I1954
sS'users'
p3700
I1366
sS'gross'
p3701
I3122
sS'reservation'
p3702
I3647
sS'prosecution'
p3703
I2649
sS'kirk'
p3704
I4730
sS'lens'
p3705
I1062
sS'recordingstudios'
p3706
I1305
sS'handcraft'
p3707
I2588
sS'velocity'
p3708
I2911
sS'leaf'
p3709
I1925
sS'je'
p3710
I4374
sS'desert'
p3711
I1173
sS'structure'
p3712
I380
sS'tummy'
p3713
I4261
sS'edassori'
p3714
I3014
sS'land'
p3715
I463
sS'fighter'
p3716
I2437
sS'algorithm'
p3717
I3513
sS'vice'
p3718
I1355
sS'provenance'
p3719
I1529
sS'physics'
p3720
I373
sS'age'
p3721
I4199
sS'required'
p3722
I1177
sS'consoles'
p3723
I3713
sS'orbit'
p3724
I2290
sS'departments'
p3725
I571
sS'scans'
p3726
I4694
sS'depth'
p3727
I3052
sS'fresh'
p3728
I3211
sS'contaminant'
p3729
I4486
sS'presenting'
p3730
I1094
sS'protests'
p3731
I4333
sS'disneyana'
p3732
I3359
sS'failures'
p3733
I542
sS'having'
p3734
I4549
sS'normalized'
p3735
I4649
sS'code'
p3736
I99
sS'myimedia'
p3737
I2521
sS'advisory'
p3738
I3583
sS'issued'
p3739
I679
sS'containedby'
p3740
I475
sS'tombs'
p3741
I4492
sS'results'
p3742
I1748
sS'astronauts'
p3743
I4299
sS'patienthealthrecord'
p3744
I3640
sS'illustrated'
p3745
I1658
sS'farms'
p3746
I958
sS'proposition'
p3747
I318
sS'stops'
p3748
I4909
sS'broader'
p3749
I393
sS'orator'
p3750
I2307
sS'query'
p3751
I2818
sS'golfer'
p3752
I4613
sS'contributions'
p3753
I2477
sS'centers'
p3754
I1659
sS'issues'
p3755
I1876
sS'issuer'
p3756
I2604
sS'theorist'
p3757
I4744
sS'archdiocese'
p3758
I3690
sS'visiting'
p3759
I4937
sS'rivalry'
p3760
I3033
sS'ego'
p3761
I1635
sS'notability'
p3762
I4584
sS'languages'
p3763
I207
sS'culinary'
p3764
I1217
sS'intellectualproperty'
p3765
I2441
sS'jsullivan'
p3766
I4155
sS'charity'
p3767
I1711
sS'friendly'
p3768
I3079
sS'resources'
p3769
I2322
sS'ingredient'
p3770
I498
sS'uploaded'
p3771
I2052
sS'armament'
p3772
I1373
sS'garden'
p3773
I4846
sS'automotive'
p3774
I1612
sS'politeuri'
p3775
I1310
sS'venuebase'
p3776
I2894
sS'engineered'
p3777
I757
sS'rlyeh'
p3778
I4143
sS'cemeteries'
p3779
I2230
sS'cataloged'
p3780
I3371
sS'facebook'
p3781
I4816
sS'fictionalized'
p3782
I3390
sS'drinking'
p3783
I3916
sS'neptunian'
p3784
I3344
sS'continued'
p3785
I2669
sS'minerals'
p3786
I611
sS'categories'
p3787
I2467
sS'recreation'
p3788
I1337
sS'magic'
p3789
I1326
sS'religions'
p3790
I4271
sS'harbor'
p3791
I3215
sS'gender'
p3792
I783
sS'notes'
p3793
I3499
sS'queen'
p3794
I3710
sS'tunnel'
p3795
I3064
sS'race'
p3796
I371
sS'asp'
p3797
I3889
sS'obamabase'
p3798
I2180
sS'gauge'
p3799
I2015
sS'animanga'
p3800
I3909
sS'ceasefire'
p3801
I682
sS'ride'
p3802
I1670
sS'sewage'
p3803
I4021
sS'zm'
p3804
I2157
sS'smaller'
p3805
I3754
sS'vc'
p3806
I4712
sS'wrestling'
p3807
I2091
sS'johannsg'
p3808
I2099
sS'licensee'
p3809
I2332
sS'licensed'
p3810
I2333
sS'atitdatlas'
p3811
I4660
sS'video'
p3812
I559
sS'drafted'
p3813
I3404
sS'licenses'
p3814
I1830
sS'assembly'
p3815
I3904
sS'clich'
p3816
I3029
sS'victor'
p3817
I819
sS'universities'
p3818
I1762
sS'flagship'
p3819
I3877
sS'font'
p3820
I2803
sS'plays'
p3821
I853
sS'tfmorris'
p3822
I977
sS'paintings'
p3823
I4763
sS'campuses'
p3824
I2373
sS'giving'
p3825
I4321
sS'anthem'
p3826
I2257
sS'marketed'
p3827
I3840
sS'networks'
p3828
I2365
sS'cell'
p3829
I421
sS'cookingsupplyandequipment'
p3830
I4052
sS'nonprofits'
p3831
I3823
sS'indian'
p3832
I842
sS'twins'
p3833
I3718
sS'buys'
p3834
I4535
sS'morst'
p3835
I2196
sS'capital'
p3836
I331
sS'firms'
p3837
I3354
sS'tournaments'
p3838
I1723
sS'equivalent'
p3839
I406
sS'exercise'
p3840
I1720
sS'body'
p3841
I173
sS'ancient'
p3842
I4506
sS'nearest'
p3843
I4555
sS'led'
p3844
I3982
sS'measurements'
p3845
I4892
sS'degree'
p3846
I1891
sS'exchange'
p3847
I1500
sS'lapax'
p3848
I1227
sS'commercial'
p3849
I791
sS'judges'
p3850
I2397
sS'iconic'
p3851
I4670
sS'dressed'
p3852
I4180
sS'objects'
p3853
I1029
sS'jeans'
p3854
I4817
sS'lands'
p3855
I2695
sS'divinity'
p3856
I2554
sS'canals'
p3857
I3105
sS'kidnapped'
p3858
I3567
sS'cyclist'
p3859
I1485
sS'bottle'
p3860
I3413
sS'convert'
p3861
I1858
sS'trans'
p3862
I3343
sS'excavator'
p3863
I4491
sS'survivor'
p3864
I1502
sS'credits'
p3865
I1571
sS'technical'
p3866
I677
sS'involved'
p3867
I1246
sS'31'
p3868
I3181
sS'casino'
p3869
I2425
sS'oblast'
p3870
I1141
sS'codeflow'
p3871
I2011
sS'implementation'
p3872
I4828
sS'bicycles'
p3873
I4567
sS'lookalikes'
p3874
I1138
sS'planetographic'
p3875
I2010
sS'impressionist'
p3876
I3790
sS'opinion'
p3877
I3515
sS'gene'
p3878
I1379
sS'makes'
p3879
I4286
sS'maker'
p3880
I2705
sS'patents'
p3881
I605
sS'composed'
p3882
I851
sS'named'
p3883
I35
sS'writer'
p3884
I3303
sS'stabilization'
p3885
I3554
sS'stockmarketindex'
p3886
I4773
sS'sire'
p3887
I2741
sS'win'
p3888
I4514
sS'app'
p3889
I2884
sS'grapheme'
p3890
I4919
sS'private'
p3891
I2359
sS'portmanteau'
p3892
I4323
sS'trixtypes'
p3893
I4646
sS'addressed'
p3894
I2864
sS'performer'
p3895
I483
sS'names'
p3896
I1046
sS'composer'
p3897
I849
sS'philbsuniverse'
p3898
I1791
sS'mladraft'
p3899
I1391
sS'festivals'
p3900
I1722
sS'tools'
p3901
I453
sS'anjackson'
p3902
I4296
sS'cloud'
p3903
I243
sS'mrmasterbastard'
p3904
I1865
sS'standing'
p3905
I4068
sS'use'
p3906
I551
sS'refers'
p3907
I1146
sS'from'
p3908
I57
sS'patron'
p3909
I3475
sS'lifts'
p3910
I3476
sS'metaschema'
p3911
I2724
sS'breakup'
p3912
I4359
sS'fans'
p3913
I4279
sS'next'
p3914
I1147
sS'lobbying'
p3915
I4874
sS'depicted'
p3916
I4368
sS'camera'
p3917
I235
sS'vehicle'
p3918
I592
sS'cryptozoologist'
p3919
I3106
sS'toy'
p3920
I2353
sS'panel'
p3921
I3959
sS'historically'
p3922
I4270
sS'defendant'
p3923
I3518
sS'parliament'
p3924
I1456
sS'dentists'
p3925
I3955
sS'shipwreck'
p3926
I3760
sS'ricardocabral'
p3927
I2409
sS'majoring'
p3928
I3608
sS'trait'
p3929
I1165
sS'musician'
p3930
I1309
sS'infection'
p3931
I338
sS'confused'
p3932
I3992
sS'wonder'
p3933
I4507
sS'trail'
p3934
I3522
sS'train'
p3935
I1850
sS'virulence'
p3936
I4417
sS'nascar'
p3937
I2519
sS'wrestlers'
p3938
I4232
sS'cylon'
p3939
I527
sS'appointee'
p3940
I2370
sS'appointed'
p3941
I3747
sS'hints'
p3942
I1624
sS'customer'
p3943
I2341
sS'account'
p3944
I2620
sS'animals'
p3945
I1854
sS'mythical'
p3946
I982
sS'cimis'
p3947
I2797
sS'this'
p3948
I67
sS'athlete'
p3949
I148
sS'package'
p3950
I3217
sS'amitre'
p3951
I4329
sS'blender'
p3952
I3663
sS'assumptions'
p3953
I4736
sS'publications'
p3954
I2511
sS'praise'
p3955
I2486
sS'freedom'
p3956
I2436
sS'industrial'
p3957
I4423
sS'inhibitor'
p3958
I1302
sS'plug'
p3959
I118
sS'something'
p3960
I4699
sS'control'
p3961
I2028
sS'kake'
p3962
I1990
sS'speciality'
p3963
I3136
sS'links'
p3964
I1905
sS'providers'
p3965
I3147
sS'process'
p3966
I1414
sS'lock'
p3967
I1587
sS'gendered'
p3968
I4876
sS'tax'
p3969
I2796
sS'taxon'
p3970
I1080
sS'high'
p3971
I1814
sS'villain'
p3972
I672
sS'tag'
p3973
I2982
sS'recognized'
p3974
I4682
sS'offense'
p3975
I2407
sS'triangle'
p3976
I3347
sS'serial'
p3977
I1109
sS'voice'
p3978
I4112
sS'expandable'
p3979
I2413
sS'native'
p3980
I3455
sS'dominant'
p3981
I3375
sS'practical'
p3982
I2927
sS'educational'
p3983
I364
sS'united'
p3984
I261
sS'destroying'
p3985
I2298
sS'boxing'
p3986
I1998
sS'namespace'
p3987
I1311
sS'inaugural'
p3988
I1482
sS'formations'
p3989
I2210
sS'arrangement'
p3990
I1255
sS'regions'
p3991
I4554
sS'located'
p3992
I4397
sS'winners'
p3993
I3311
sS'endowed'
p3994
I3423
sS'forest'
p3995
I2270
sS'animal'
p3996
I275
sS'ikariam'
p3997
I926
sS'superlanguage'
p3998
I4273
sS'comedy'
p3999
I1945
sS'intelligent'
p4000
I3233
sS'broker'
p4001
I4802
sS'stock'
p4002
I1492
sS'profile'
p4003
I499
sS'tension'
p4004
I3369
sS'buildings'
p4005
I3001
sS'iata'
p4006
I1999
sS'metalfoundries'
p4007
I4003
sS'modded'
p4008
I4707
sS'specialised'
p4009
I4297
sS'farm'
p4010
I1947
sS'stop'
p4011
I2659
sS'waters'
p4012
I103
sS'philosophy'
p4013
I685
sS'designator'
p4014
I2000
sS'collection'
p4015
I729
sS'tack'
p4016
I2897
sS'petbreeds'
p4017
I722
sS'society'
p4018
I3223
sS'ties'
p4019
I2380
sS'nps'
p4020
I2843
sS'induction'
p4021
I3219
sS'understory'
p4022
I2375
sS'lines'
p4023
I1987
sS'robot'
p4024
I1997
sS'element'
p4025
I17
sS'commodities'
p4026
I3625
sS'acquitted'
p4027
I2192
sS'chief'
p4028
I2443
sS'advocates'
p4029
I3895
sS'supranational'
p4030
I3946
sS'tenure'
p4031
I1674
sS'eransun'
p4032
I1367
sS'addiction'
p4033
I3338
sS'quotations'
p4034
I1769
sS'perfumer'
p4035
I4609
sS's1'
p4036
I3573
sS'agroschim'
p4037
I1573
sS'producer'
p4038
I1354
sS'produces'
p4039
I3068
sS'contaminates'
p4040
I4487
sS'astronomical'
p4041
I1026
sS'competing'
p4042
I4607
sS'meter'
p4043
I3541
sS'partiallycontains'
p4044
I2171
sS'symbols'
p4045
I33
sS'alliance'
p4046
I2086
sS'costume'
p4047
I826
sS'hypernym'
p4048
I2746
sS'cruise'
p4049
I1582
sS'mentioned'
p4050
I143
sS'electors'
p4051
I4176
sS'nasty'
p4052
I1837
sS'galaxy'
p4053
I529
sS'cheerleader'
p4054
I4427
sS'industries'
p4055
I227
sS'bridges'
p4056
I999
sS'macuser'
p4057
I2127
sS'progeny'
p4058
I2781
sS'mobilecomputers'
p4059
I4643
sS'ships'
p4060
I1535
sS'winning'
p4061
I3277
sS'degrees'
p4062
I3626
sS'bridged'
p4063
I998
sS'instruments'
p4064
I2112
sS'covered'
p4065
I514
sS'criminal'
p4066
I857
sS'distilleries'
p4067
I1115
sS'dfhuynh'
p4068
I4717
sS'originator'
p4069
I171
sS'jefft0'
p4070
I503
sS'dam'
p4071
I541
sS'raion'
p4072
I4396
sS'material'
p4073
I613
sS'dike'
p4074
I1996
sS'damages'
p4075
I4255
sS'mention'
p4076
I707
sS'mediashelf'
p4077
I3561
sS'logiclabs'
p4078
I769
sS'satellites'
p4079
I3059
sS'documented'
p4080
I609
sS'headphone'
p4081
I3077
sS'investor'
p4082
I4157
sS'day'
p4083
I2124
sS'presidential'
p4084
I1356
sS'successor'
p4085
I1501
sS'worlds'
p4086
I3831
sS'mods'
p4087
I3960
sS'airports'
p4088
I1293
sS'installment'
p4089
I1110
sS'scenic'
p4090
I1348
sS'university'
p4091
I2255
sS'survivorseason'
p4092
I1785
sS'feast'
p4093
I2463
sS'ebel'
p4094
I1154
sS'by1'
p4095
I2529
sS'lifetime'
p4096
I4051
sS'into'
p4097
I3816
sS'magnitude'
p4098
I4601
sS'rockets'
p4099
I471
sS'mode'
p4100
I1591
sS'truth'
p4101
I3951
sS'virology'
p4102
I2698
sS'interview'
p4103
I3719
sS'bills'
p4104
I2607
sS'studios'
p4105
I1957
sS'casinos'
p4106
I2424
sS'completions'
p4107
I3478
sS'usergroup'
p4108
I2578
sS'knockoffed'
p4109
I4224
sS'related'
p4110
I226
sS'bluetooth'
p4111
I2061
sS'operator'
p4112
I1869
sS'books'
p4113
I135
sS'variety'
p4114
I2738
sS'copywriters'
p4115
I2793
sS'programmer'
p4116
I1298
sS'inductees'
p4117
I3482
sS'skos'
p4118
I392
sS'special'
p4119
I2931
sS'category'
p4120
I524
sS'spectrum'
p4121
I2619
sS'activism'
p4122
I2334
sS'specifications'
p4123
I3962
sS'etymology'
p4124
I3587
sS'activist'
p4125
I1253
sS'messenger'
p4126
I3834
sS'performs'
p4127
I4410
sS'cesy'
p4128
I3755
sS'todolists'
p4129
I3497
sS'cause'
p4130
I1058
sS'snl'
p4131
I229
sS'feudalism'
p4132
I1579
sS'achievements'
p4133
I3995
sS'multimedia'
p4134
I4545
sS'rlshs'
p4135
I3559
sS'wines'
p4136
I311
sS'frank'
p4137
I3016
sS'anhandreu'
p4138
I4381
sS'maintains'
p4139
I1845
sS'galaxies'
p4140
I2840
sS'delegates'
p4141
I2319
sS'release'
p4142
I42
sS'approaches'
p4143
I4883
sS'hogwarts'
p4144
I3464
sS'que'
p4145
I4373
sS'vacations'
p4146
I2678
sS'unitednations'
p4147
I260
sS'advisor'
p4148
I919
sS'regulatory'
p4149
I98
sS'delegated'
p4150
I2336
sS'footballcoaches'
p4151
I3628
sS'compositions'
p4152
I2679
sS'additional'
p4153
I461
sS'prececessor'
p4154
I1879
sS'hubble'
p4155
I4560
sS'interaction'
p4156
I1896
sS'allies'
p4157
I4793
sS'dubbed'
p4158
I2591
sS'recipes'
p4159
I1219
sS'aristic'
p4160
I4201
sS'skateboard'
p4161
I2903
sS'timer'
p4162
I1018
sS'opererating'
p4163
I2321
sS'length'
p4164
I803
sS'abuse'
p4165
I3275
sS'derivations'
p4166
I2014
sS'qualification'
p4167
I831
sS'meals'
p4168
I4393
sS'crm'
p4169
I574
sS'austin'
p4170
I3324
sS'maxim75'
p4171
I2658
sS'isbn'
p4172
I2632
sS'manuscript'
p4173
I3792
sS'blogger'
p4174
I1152
sS'ethnic'
p4175
I933
sS'thadguidry'
p4176
I1763
sS'owned'
p4177
I1660
sS'sorority'
p4178
I734
sS'exoplanetology'
p4179
I2684
sS'guidebook'
p4180
I2122
sS'thoughtranker'
p4181
I3250
sS'owner'
p4182
I726
sS'inhabitations'
p4183
I3450
sS'awarded'
p4184
I1930
sS'quality'
p4185
I2108
sS'moiety'
p4186
I2553
sS'owning'
p4187
I3744
sS'destinations'
p4188
I2841
sS'legislative'
p4189
I2423
sS'promoter'
p4190
I3851
sS'management'
p4191
I1771
sS'deceptive'
p4192
I2995
sS'publication'
p4193
I656
sS'alfborge'
p4194
I3900
sS'start'
p4195
I3991
sS'festival'
p4196
I930
sS'journals'
p4197
I3017
sS'nasagcmd'
p4198
I397
sS'achieved'
p4199
I2997
sS'grip'
p4200
I2306
sS'system'
p4201
I584
sS'occupancy'
p4202
I2147
sS'annotation'
p4203
I3009
sS'priority'
p4204
I869
sS'motorsports'
p4205
I3102
sS'attack'
p4206
I52
sS'mullardspacesciencelaboratoryprojects'
p4207
I1706
sS'adopter'
p4208
I4024
sS'rated'
p4209
I4612
sS'spaceship'
p4210
I921
sS'low'
p4211
I3712
sS'malady'
p4212
I639
sS'enforcement'
p4213
I1075
sS'gear'
p4214
I2357
sS'explanation'
p4215
I3161
sS'brazilian'
p4216
I2999
sS'tjgillies'
p4217
I3387
sS'lists'
p4218
I1407
sS'froderik'
p4219
I3880
sS'environmental'
p4220
I4166
sS'elections'
p4221
I4086
sS'golfers'
p4222
I3596
sS'incident'
p4223
I4248
sS'constituent'
p4224
I2237
sS'subgenre'
p4225
I2069
sS'completer'
p4226
I4100
sS'institution'
p4227
I365
sS'prominence'
p4228
I3150
sS'photograph'
p4229
I710
sS'psych0fred'
p4230
I2239
sS'sameas'
p4231
I2410
sS'infectious'
p4232
I2250
sS'submitted'
p4233
I455
sS'politics'
p4234
I4169
sS'patients'
p4235
I3383
sS'individual'
p4236
I429
sS'editors'
p4237
I3844
sS'loves'
p4238
I4437
sS'impersonations'
p4239
I3196
sS'providing'
p4240
I4428
sS'coronation'
p4241
I2892
sS'fermentation'
p4242
I3327
sS'tsturge'
p4243
I1070
sS'exhibit'
p4244
I1853
sS'davidx'
p4245
I4213
sS'hairstyle'
p4246
I1630
sS'false'
p4247
I1789
sS'ammunition'
p4248
I4078
sS'inettom'
p4249
I3372
sS'partnership'
p4250
I2807
sS'rictic'
p4251
I3616
sS'academics'
p4252
I2070
sS'genomic'
p4253
I3008
sS'practicing'
p4254
I4871
sS'demonstration'
p4255
I915
sS'linked'
p4256
I3428
sS'complete'
p4257
I4145
sS'acceleration'
p4258
I2616
sS'peers'
p4259
I1963
sS'umltools'
p4260
I1463
sS'angle'
p4261
I3410
sS'dishes'
p4262
I3378
sS'replicas'
p4263
I2540
sS'agency'
p4264
I303
sS'subdivisions'
p4265
I1889
sS'parks'
p4266
I618
sS'contact'
p4267
I3080
sS'lilu'
p4268
I4673
sS'instance'
p4269
I847
sS'issuing'
p4270
I676
sS'method2'
p4271
I3235
sS'conferring'
p4272
I2789
sS'tactic'
p4273
I2978
sS'radiusrs'
p4274
I968
sS'bibkn'
p4275
I3461
sS'subject'
p4276
I297
sS'medals'
p4277
I3703
sS'fuels'
p4278
I4906
sS'storm'
p4279
I4240
sS'arthist'
p4280
I2155
sS'collaboration'
p4281
I1398
sS'who'
p4282
I1802
sS'cipher'
p4283
I2074
sS'connected'
p4284
I248
sS'ansamcw'
p4285
I3402
sS'device'
p4286
I2062
sS'comparison'
p4287
I4168
sS'medal'
p4288
I1049
sS'class'
p4289
I95
sS'realtor'
p4290
I2562
sS'philosophers'
p4291
I2879
sS'placement'
p4292
I4154
sS'mobbed'
p4293
I4290
sS'spaceflight'
p4294
I469
sS'tutoring'
p4295
I4788
sS'bred'
p4296
I2432
sS'request'
p4297
I3024
sS'disease'
p4298
I1135
sS'pipe'
p4299
I64
sS'theosbornboysaregrowing'
p4300
I3229
sS'capita'
p4301
I2890
sS'teachers'
p4302
I4139
sS'drag'
p4303
I3709
sS'movie'
p4304
I1538
sS'electromagneticspectrum'
p4305
I2617
sS'ameroamigo'
p4306
I2451
sS'painting'
p4307
I3917
sS'fief'
p4308
I2160
sS'terminuses'
p4309
I2898
sS'impression'
p4310
I1009
sS'atmosphere'
p4311
I351
sS'monasteries'
p4312
I4572
sS'text'
p4313
I3679
sS'supported'
p4314
I2063
sS'technology1'
p4315
I4785
sS'planning'
p4316
I2924
sS'hangout'
p4317
I4611
sS'disvalue'
p4318
I3169
sS'taxonomic'
p4319
I4729
sS'chicken'
p4320
I2862
sS'supporter'
p4321
I838
sS'principal'
p4322
I950
sS'partners'
p4323
I2893
sS'coloring'
p4324
I1606
sS'based'
p4325
I708
sS'knowledge'
p4326
I1163
sS'abandoned'
p4327
I3062
sS'with'
p4328
I66
sS'winner'
p4329
I1503
sS'fairestcat'
p4330
I2215
sS'pickup'
p4331
I2895
sS'vtalwar'
p4332
I1477
sS'employer'
p4333
I2682
sS'terminal'
p4334
I2312
sS'entities'
p4335
I4367
sS'score'
p4336
I4023
sS'topnode'
p4337
I4720
sS'radiostations'
p4338
I2857
sS'fuel'
p4339
I1849
sS'riding'
p4340
I2560
sS'local'
p4341
I159
sS'inferior'
p4342
I2984
sS'exchanged'
p4343
I1498
sS'cinematography'
p4344
I1920
sS'sued'
p4345
I3224
sS'means'
p4346
I4600
sS'beat'
p4347
I1648
sS'monsters'
p4348
I3884
sS'ianbetteridge'
p4349
I4640
sS'maritime'
p4350
I2731
sS'beam'
p4351
I4439
sS'alecf'
p4352
I1336
sS'kinometric'
p4353
I3603
sS'occupant'
p4354
I3986
sS'champions'
p4355
I2356
sS'socanddatamanagement'
p4356
I1714
sS'entity'
p4357
I3032
sS'routine'
p4358
I4214
sS'antagonist'
p4359
I775
sS'areas'
p4360
I2205
sS'produced'
p4361
I1882
sS'caves'
p4362
I3465
sS'committees'
p4363
I989
sS'dedicatee'
p4364
I3887
sS'tobacco'
p4365
I63
sS'ended'
p4366
I3260
sS'married'
p4367
I4689
sS'expansions'
p4368
I1242
sS'suburbs'
p4369
I3492
sS'teams'
p4370
I366
sS'stuff'
p4371
I4722
sS'processed'
p4372
I3830
sS'dangerous'
p4373
I246
sS'proponents'
p4374
I4668
sS'fixed'
p4375
I4339
sS'pertains'
p4376
I4655
sS'generations'
p4377
I4219
sS'motorcycle'
p4378
I172
sS'end1'
p4379
I2668
sS'josephskeller'
p4380
I3342
sS'requirement'
p4381
I1176
sS'end2'
p4382
I4852
sS'consulates'
p4383
I1385
sS'exists'
p4384
I1739
sS'acquired'
p4385
I3767
sS'unratified'
p4386
I3479
sS'national'
p4387
I1290
sS'correlations'
p4388
I4912
sS'operates'
p4389
I2787
sS'edition'
p4390
I1735
sS'intensity'
p4391
I1558
sS'computer'
p4392
I161
sS'multipart'
p4393
I2134
sS'futebol'
p4394
I3805
sS'skateboarding'
p4395
I973
sS'operated'
p4396
I2822
sS'luminous'
p4397
I1557
sS'medalists'
p4398
I4191
sS'textiles'
p4399
I2081
sS'conductivity'
p4400
I3044
sS'polymorph'
p4401
I614
sS'wire'
p4402
I1647
sS'superhero'
p4403
I774
sS'placed'
p4404
I4484
sS'nuclear'
p4405
I1041
sS'monstrous'
p4406
I2324
sS'below'
p4407
I4551
sS'written'
p4408
I4
sS'connection'
p4409
I2660
sS'identification'
p4410
I2268
sS'backpacking1'
p4411
I647
sS'nominees'
p4412
I3151
sS'piston'
p4413
I779
sS'datafunzone'
p4414
I1435
sS'gemstone'
p4415
I111
sS'complement'
p4416
I4304
sS'bought'
p4417
I1611
sS'monarchs'
p4418
I1493
sS'keynote'
p4419
I4122
sS'deizel'
p4420
I4159
sS'ability'
p4421
I2220
sS'tags'
p4422
I4343
sS'underwater'
p4423
I3051
sS'mheller'
p4424
I3379
sS'antstamper'
p4425
I4578
sS'agencies'
p4426
I1076
sS'implementing'
p4427
I2842
sS'job'
p4428
I1432
sS'hypothesis'
p4429
I2691
sS'key'
p4430
I866
sS'squads'
p4431
I3838
sS'group'
p4432
I531
sS'w'
I4761
sS'configuration'
p4433
I780
sS'lawsuit'
p4434
I2520
sS'zodiacsign'
p4435
I1127
sS'restrictions'
p4436
I2546
sS'commands'
p4437
I2515
sS'planned'
p4438
I4591
sS'instant'
p4439
I3833
sS'limits'
p4440
I1313
sS'pepper'
p4441
I2401
sS'epidemics'
p4442
I3002
sS'rcheramy'
p4443
I408
sS'decay'
p4444
I3269
sS'aircraft'
p4445
I427
sS'drug'
p4446
I216
sS'trumpi'
p4447
I3965
sS'coninent'
p4448
I4221
sS'etc'
p4449
I4769
sS'subdividing'
p4450
I4174
sS'figures'
p4451
I1504
sS'sexes'
p4452
I4361
sS'tld'
p4453
I4728
sS'completeproperties'
p4454
I4146
sS'passing'
p4455
I745
sS'kinds'
p4456
I3388
sS'jersey'
p4457
I3292
sS'donors'
p4458
I4443
sS'sequenced'
p4459
I4796
sS'aa'
p4460
I3686
sS'librarianavenger'
p4461
I3108
sS'relevant'
p4462
I4602
sS'cn'
p4463
I1264
sS'cm'
p4464
I1918
sS'ca'
p4465
I4901
sS'lyricist'
p4466
I1922
sS'narrower'
p4467
I2744
sS'paranormal'
p4468
I2631
sS'ce'
p4469
I4372
sS'franchise'
p4470
I1105
sS'news'
p4471
I2952
sS'table'
p4472
I661
sS'crystalline'
p4473
I612
sS'nomination'
p4474
I3405
sS'uci'
p4475
I2693
sS'poem'
p4476
I1002
sS'provinces'
p4477
I1363
sS'fishery'
p4478
I2645
sS'contributors'
p4479
I1820
sS'exposure'
p4480
I4020
sS'attraction'
p4481
I3020
sS'cinema'
p4482
I1540
sS'trademark'
p4483
I1790
sS'poured'
p4484
I4005
sS'librettist'
p4485
I1269
sS'treat'
p4486
I3882
sS'graphicnovels'
p4487
I4528
sS'proposal'
p4488
I3000
sS'recurring'
p4489
I848
sS'ontologies'
p4490
I404
sS'poes'
p4491
I4186
sS'contribute'
p4492
I4479
sS'controlled'
p4493
I2236
sS'finishes'
p4494
I2733
sS'restricted'
p4495
I3323
sS'route'
p4496
I1507
sS'richdice'
p4497
I4821
sS'varietal'
p4498
I2584
sS'internetdomain'
p4499
I2004
sS'accident'
p4500
I281
sS'inductance'
p4501
I2582
sS'carmenmfenn1'
p4502
I616
sS'last'
p4503
I2870
sS'resultant'
p4504
I2419
sS'explosive'
p4505
I4907
sS'present'
p4506
I4831
sS'quotation'
p4507
I1389
sS'transversed'
p4508
I3945
sS'divisions'
p4509
I846
sS'multi'
p4510
I1395
sS'novel'
p4511
I1056
sS'atmospheric'
p4512
I1653
sS'survey'
p4513
I1027
sS'subsets'
p4514
I4380
sS'sibling'
p4515
I2814
sS'glossary'
p4516
I4647
sS'runway'
p4517
I2335
sS'professionally'
p4518
I4541
sS'appearance'
p4519
I673
sS'value'
p4520
I32
sS'ficlove'
p4521
I4517
sS'advisors'
p4522
I2344
sS'frameworks'
p4523
I2388
sS'ar'
p4524
I4669
sS'cyclocross'
p4525
I4738
sS'owns'
p4526
I1008
sS'hubs'
p4527
I929
sS'cvg'
p4528
I160
sS'mythology'
p4529
I2308
sS'discoveries'
p4530
I3684
sS'jessewang'
p4531
I4749
sS'accuser'
p4532
I2021
sS'layer'
p4533
I1654
sS'regattas'
p4534
I2886
sS'planets'
p4535
I1666
sS'physicians'
p4536
I1528
sS'resident'
p4537
I4523
sS'demo'
p4538
I2522
sS'animalnames'
p4539
I274
sS'completed'
p4540
I4101
sS'site'
p4541
I444
sS'surface'
p4542
I2917
sS'triggery'
p4543
I2643
sS'vp'
p4544
I1034
sS'caveart'
p4545
I1010
sS'arrangements'
p4546
I1258
sS'architecture2'
p4547
I379
sS'sherlock'
p4548
I2456
sS'digisynddillonm'
p4549
I3389
sS'claimed'
p4550
I3046
sS'partner'
p4551
I1966
sS'arabic'
p4552
I451
sS'superheroes'
p4553
I773
sS'qualifier'
p4554
I2852
sS'orbital'
p4555
I1421
sS'familyguy'
p4556
I4161
sS'cgcollection'
p4557
I1136
sS'terrorist'
p4558
I2716
sS'diets'
p4559
I299
sS'apps'
p4560
I2882
sS'administration'
p4561
I1506
sS'operas'
p4562
I2209
sS'enumeration'
p4563
I2751
sS'campus'
p4564
I3607
sS'member'
p4565
I149
sS'contraindications'
p4566
I1978
sS'of1'
p4567
I2589
sS'speaker'
p4568
I1953
sS'geographical'
p4569
I705
sS'underground'
p4570
I1130
sS'party'
p4571
I715
sS'terrorism'
p4572
I2715
sS'hyponym'
p4573
I4776
sS'gamer'
p4574
I2191
sS'injured'
p4575
I1838
sS'practice'
p4576
I794
sS'practitioner'
p4577
I4553
sS'context'
p4578
I4457
sS'coached'
p4579
I1340
sS'novels'
p4580
I1054
sS'premiere'
p4581
I4415
sS'appearances'
p4582
I414
sS'reporting'
p4583
I2953
sS'upon'
p4584
I4095
sS'amendments'
p4585
I2817
sS'proficiency'
p4586
I1645
sS'coaches'
p4587
I2172
sS'joshuamclark'
p4588
I3821
sS'cinematographer'
p4589
I3483
sS'architectures'
p4590
I4202
sS'student'
p4591
I701
sS'bakery'
p4592
I3458
sS'phr'
p4593
I4548
sS'datatypes'
p4594
I4109
sS'adherents'
p4595
I3138
sS'cultivar'
p4596
I386
sS'scholars'
p4597
I4938
sS'mosaic'
p4598
I3352
sS'destruction'
p4599
I855
sS'plural'
p4600
I4302
sS'off'
p4601
I833
sS'center'
p4602
I1143
sS'philo'
p4603
I3322
sS'i'
I2538
sS'uml'
p4604
I2809
sS'weapon'
p4605
I50
sS'ingredients'
p4606
I301
sS'well'
p4607
I4552
sS'thefuture'
p4608
I3446
sS'thought'
p4609
I1744
sS'patterns'
p4610
I2838
sS'1'
I353
sS'sets'
p4611
I1327
sS'position'
p4612
I1976
sS'creators'
p4613
I1158
sS'advertiser'
p4614
I3660
sS'guitarist'
p4615
I3672
sS'coaster'
p4616
I2032
sS'rocket'
p4617
I470
sS'storage'
p4618
I2823
sS'executive'
p4619
I1919
sS'domestic'
p4620
I1965
sS'superseries'
p4621
I3694
sS'dose'
p4622
I1277
sS'sources'
p4623
I1013
sS'clinic'
p4624
I3367
sS'wildlife'
p4625
I3699
sS'rooms'
p4626
I991
sS'twinned'
p4627
I3511
sS'advertised'
p4628
I3568
sS'years'
p4629
I3189
sS'skill'
p4630
I523
sS'lukeschubert'
p4631
I2993
sS'flashlight'
p4632
I2106
sS'web'
p4633
I79
sS'honouriam'
p4634
I1182
sS'yalebase'
p4635
I655
sS'ads'
p4636
I449
sS'density'
p4637
I608
sS'residential'
p4638
I3120
sS'antarctic'
p4639
I4810
sS'supply'
p4640
I1267
sS'lake'
p4641
I972
sS'killed'
p4642
I2445
sS'morstministryofresearchscienceandtechnology'
p4643
I2195
sS'arrest'
p4644
I2406
sS'other'
p4645
I2482
sS'combine'
p4646
I2473
sS'waypoint'
p4647
I557
sS'host1'
p4648
I3580
sS'propositions'
p4649
I316
sS'usage'
p4650
I2005
sS'ski'
p4651
I1822
sS'earthquakes'
p4652
I89
sS'match'
p4653
I403
sS'sjerrys'
p4654
I4672
sS'tests'
p4655
I1476
sS'meteor'
p4656
I879
sS'mutargyak'
p4657
I2866
sS'government'
p4658
I713
sS'buoy'
p4659
I3598
sS'gossip'
p4660
I3445
sS'grandsire'
p4661
I3825
sS'protesters'
p4662
I3758
sS'allegiance'
p4663
I4056
sS'royalty'
p4664
I583
sS'five'
p4665
I2398
sS'community'
p4666
I564
sS'dish'
p4667
I2355
sS'gambling'
p4668
I3207
sS'variants'
p4669
I1578
sS'pier'
p4670
I2612
sS'prominent'
p4671
I2110
sS'loss'
p4672
I3420
sS'like'
p4673
I913
sS'lost'
p4674
I1939
sS'sizes'
p4675
I980
sS'ktrueman'
p4676
I2767
sS'oses'
p4677
I2949
sS'susceptibilities'
p4678
I4391
sS'candy'
p4679
I2036
sS'parasite'
p4680
I2700
sS'ordinaire'
p4681
I4242
sS'dancer'
p4682
I2263
sS'hosts'
p4683
I1543
sS'faught'
p4684
I4163
sS'crism'
p4685
I4136
sS'works'
p4686
I654
sS'soft'
p4687
I1679
sS'page'
p4688
I1681
sS'imprints'
p4689
I2627
sS'therapeutic'
p4690
I874
sS'amendment'
p4691
I1986
sS'nfl'
p4692
I1800
sS'habitat'
p4693
I1563
sS'sequence'
p4694
I3231
sS'footage'
p4695
I1188
sS'scottish'
p4696
I4283
sS'ptype'
p4697
I2035
sS'authority'
p4698
I214
sS'hair'
p4699
I1600
sS'platforms'
p4700
I1479
sS'growth'
p4701
I4326
sS'endofallthings'
p4702
I2637
sS'libretti'
p4703
I4206
sS'computers'
p4704
I3045
sS'home'
p4705
I272
sS'empire'
p4706
I1877
sS'peter'
p4707
I3776
sS'employment'
p4708
I3722
sS'mother'
p4709
I4153
sS'transport'
p4710
I3133
sS'contested'
p4711
I537
sS'assassinated'
p4712
I4718
sS'peleton'
p4713
I367
sS'vocabulary'
p4714
I3472
sS'lead'
p4715
I1245
sS'merge'
p4716
I4407
sS'contributing'
p4717
I4210
sS'avoid'
p4718
I300
sS'mines'
p4719
I2849
sS'philosopher'
p4720
I1949
sS'fandoms'
p4721
I3866
sS'sponsoring'
p4722
I4638
sS'viral'
p4723
I3826
sS'mined'
p4724
I4650
sS'leader'
p4725
I2759
sS'observer'
p4726
I4405
sS'biology'
p4727
I644
sS'fictionaluniverse'
p4728
I809
sS'murderer'
p4729
I4451
sS'vintage'
p4730
I4587
sS'thoroughfare'
p4731
I2458
sS'contraindication'
p4732
I4619
sS'pethealth'
p4733
I1941
sS'grecoromanmythology'
p4734
I1201
sS'bowling'
p4735
I4035
sS'expansion'
p4736
I1621
sS'pressure'
p4737
I3727
sS'host'
p4738
I82
sS'synthesizer'
p4739
I4596
sS'targeting'
p4740
I3394
sS'loans'
p4741
I3989
sS'counties'
p4742
I1072
sS'stage'
p4743
I1914
sS'about'
p4744
I835
sS'identifier'
p4745
I4069
sS'carried'
p4746
I2792
sS'nfldraft2009'
p4747
I2472
sS'playmate'
p4748
I4516
sS'column'
p4749
I619
sS'universe'
p4750
I258
sS'certainty'
p4751
I4144
sS'basis'
p4752
I3730
sS'shoes'
p4753
I4126
sS'yqbd'
p4754
I3745
sS'physiologic'
p4755
I4133
sS'compatible'
p4756
I120
sS'dependency'
p4757
I3562
sS'digitalcameras'
p4758
I1061
sS'mwfreeciv'
p4759
I2901
sS'sighting'
p4760
I1568
sS'constructor'
p4761
I4118
sS'tomb'
p4762
I4026
sS'emperor'
p4763
I1878
sS'documentary'
p4764
I4806
sS'unreleased'
p4765
I1478
sS'software'
p4766
I840
sS'celebrations'
p4767
I1208
sS'letters'
p4768
I3609
sS'final'
p4769
I2718
sS'wilderness'
p4770
I648
sS'previously'
p4771
I4135
sS'payment'
p4772
I4589
sS'warrants'
p4773
I3653
sS'boundaries'
p4774
I3496
sS'hoaxter'
p4775
I642
sS'dataset'
p4776
I219
sS'brands'
p4777
I217
sS'weather'
p4778
I445
sS'female'
p4779
I3820
sS'artists'
p4780
I384
sS'roads'
p4781
I2503
sS'additions'
p4782
I1513
sS'giftcards'
p4783
I2988
sS'utility'
p4784
I1440
sS'placing'
p4785
I4595
sS'accused'
p4786
I1370
sS'legends'
p4787
I1014
sS'extraction'
p4788
I908
sS'transfer'
p4789
I1857
sS'museum'
p4790
I1764
sS'firefighter'
p4791
I978
sS'spots'
p4792
I3806
sS'captains'
p4793
I1649
sS'intention'
p4794
I3780
sS'cdupetit'
p4795
I2551
sS'engineering1'
p4796
I1430
sS'inspiration'
p4797
I2875
sS'specimens'
p4798
I3774
sS'rca'
p4799
I3624
sS'function'
p4800
I154
sS'resembled'
p4801
I2175
sS'cricket'
p4802
I402
sS'buxul'
p4803
I3126
sS'jury'
p4804
I3366
sS'stadium'
p4805
I2916
sS'jphekman'
p4806
I1196
sS'brand'
p4807
I631
sS'sequel'
p4808
I4291
sS'strengths'
p4809
I4522
sS'argumentmaps'
p4810
I105
sS'peppers'
p4811
I2428
sS'construction'
p4812
I876
sS'goals'
p4813
I2449
sS'courts'
p4814
I2985
sS'metaratings'
p4815
I129
sS'remote'
p4816
I4864
sS'musiteca'
p4817
I1069
sS'fraternities'
p4818
I3026
sS'thebigpitch'
p4819
I2675
sS'partially'
p4820
I4097
sS'injuy'
p4821
I249
sS'made'
p4822
I1894
sS'converter'
p4823
I220
sS'places'
p4824
I347
sS'gogza'
p4825
I2752
sS'ecosystem'
p4826
I1240
sS'official'
p4827
I1710
sS'variations'
p4828
I422
sS'hosting'
p4829
I80
sS'signed'
p4830
I2327
sS'meronyms'
p4831
I2046
sS'record'
p4832
I265
sS'sprocketonline'
p4833
I332
sS'frequency'
p4834
I821
sS'stories'
p4835
I1053
sS'ruling'
p4836
I971
sS'csafarms'
p4837
I957
sS'nominations'
p4838
I1273
sS'piece'
p4839
I967
sS'dman'
p4840
I4709
sS'display'
p4841
I1765
sS'saturdaynightlive'
p4842
I228
sS'ex'
p4843
I4779
sS'mechanics'
p4844
I1427
sS'combatants'
p4845
I3896
sS'realtors'
p4846
I4204
sS'facilites'
p4847
I3822
sS'intersects'
p4848
I2096
sS'biosafety'
p4849
I339
sS'tallships'
p4850
I598
sS'int'
p4851
I2156
sS'reservations'
p4852
I3656
sS'circus'
p4853
I3058
sS'jamesbond007'
p4854
I669
sS'descriptor'
p4855
I3552
sS'distributor'
p4856
I2526
sS'referee'
p4857
I1728
sS'periods'
p4858
I1459
sS'ambassadors'
p4859
I4570
sS'arrival'
p4860
I4786
sS'commentators'
p4861
I4350
sS'education'
p4862
I292
sS'identities'
p4863
I3471
sS'happen'
p4864
I2855
sS'chromosome'
p4865
I646
sS'sponsors'
p4866
I3654
sS'functions'
p4867
I4781
sS'cinemainspector'
p4868
I4188
sS'arra'
p4869
I4383
sS'contest'
p4870
I1156
sS'sexual'
p4871
I200
sS'penciler'
p4872
I1861
sS'mathematics1'
p4873
I16
sS'scholarly'
p4874
I2104
sS'book'
p4875
I3
sS'extracellularity'
p4876
I2318
sS'amusement'
p4877
I1669
sS'astrological'
p4878
I969
sS'antler'
p4879
I3787
sS'coffees'
p4880
I4881
sS'firecause'
p4881
I4190
sS'most'
p4882
I3859
sS'flyhighplato'
p4883
I2387
sS'penciled'
p4884
I1863
sS'firefighters'
p4885
I3246
sS'handcrafted'
p4886
I1955
sS'stat'
p4887
I1746
sS'francisco'
p4888
I3707
sS'star'
p4889
I861
sS'robertm'
p4890
I4165
sS'plate'
p4891
I3494
sS'resembles'
p4892
I3332
sS'scubadiving'
p4893
I2491
sS'variation'
p4894
I3382
sS'stay'
p4895
I4481
sS'pennsylvania'
p4896
I4475
sS'ecological'
p4897
I2513
sS'sportbase'
p4898
I1006
sS'assumption'
p4899
I4347
sS'nutrient'
p4900
I4006
sS'previous'
p4901
I2596
sS'seismic'
p4902
I2094
sS'astronomy'
p4903
I312
sS'friends'
p4904
I4362
sS'opened'
p4905
I2690
sS'ghost'
p4906
I1022
sS'markup'
p4907
I4365
sS'contraceptive'
p4908
I2317
sS'breaks'
p4909
I4832
sS'ranks'
p4910
I3613
sS'baked'
p4911
I3459
sS'factors'
p4912
I2537
sS'microdata'
p4913
I4064
sS'denomination'
p4914
I2714
sS'namesakes'
p4915
I3005
sS'armor'
p4916
I2735
sS'portion'
p4917
I4843
sS'craft'
p4918
I2937
sS'diagnosis'
p4919
I3140
sS'rural'
p4920
I3212
sS'accidents'
p4921
I1851
sS'marchmadness'
p4922
I2827
sS'kwsentence'
p4923
I740
s.