(dp1
S'dict_character'
p2
S'../../../../datasets/dict/dict_old.pkl'
p3
sS'patience'
p4
I3
sS'trainpath'
p5
(lp6
S'../../../../datasets/self_data/train_5m_0904.untidy.question'
p7
aS'../../../../datasets/self_data/train_5m_0904.untidy.subject'
p8
aS'../../../../datasets/self_data/train_5m_0904.untidy.relation'
p9
asS'lstm_layers'
p10
I1
sS'max_epochs'
p11
I50
sS'dispFreq'
p12
I100
sS'overwrite'
p13
I00
sS'pattern'
p14
S'W'
sS'word_dict_num'
p15
I5000
sS'cross'
p16
I01
sS'saveto'
p17
S'../../../../datasets/mid_model/simple_qa_model/untidy_5m_extend_lstm_dim.npz'
p18
sS'en_pooling_type'
p19
S'average'
p20
sS'valid_batch_size'
p21
I16
sS'validFreq'
p22
I4739
sS'learning_rate'
p23
F0.001
sS'batch_size'
p24
I16
sS'qu_split'
p25
I00
sS'relation_dict_num'
p26
I8000
sS'en_decode_type'
p27
S'extend_lstm_dim'
p28
sS'lstm_end'
p29
g20
sS'dict_relation'
p30
S'../../../../datasets/dict/dict_pr_cross_relation.pkl'
p31
sS'dim'
p32
I100
sS'predicate_num'
p33
I150
sS'word'
p34
I00
sS'dim_word'
p35
I200
sS'one_layer'
p36
I00
sS'dict_word'
p37
S'../../../../datasets/dict/dict_pr_cross_word.pkl'
p38
sS'maxlen'
p39
I200
sS'validpath'
p40
(lp41
S'../../../../datasets/self_data/valid_5m_0904.untidy.question'
p42
aS'../../../../datasets/self_data/valid_5m_0904.untidy.subject'
p43
aS'../../../../datasets/self_data/valid_5m_0904.untidy.relation'
p44
asS'r'
I5
sS'character_dict_num'
p45
I200
sS'saveFreq'
p46
I4739
s.