(dp1
S'dict_character'
p2
S'datasets/dict/dict_character.pkl'
p3
sS'patience'
p4
I3
sS'trainpath'
p5
(lp6
S'datasets/simpleqa/train_5m.question'
p7
aS'datasets/simpleqa/train_5m.subject'
p8
aS'datasets/simpleqa/train_5m.relation'
p9
asS'lstm_layers'
p10
I1
sS'max_epochs'
p11
I50
sS'dispFreq'
p12
I100
sS'overwrite'
p13
I00
sS'word_dict_num'
p14
I5000
sS'cross'
p15
I01
sS'saveto'
p16
S'datasets/result_model/target_attention.npz'
p17
sS'en_pooling_type'
p18
S'average'
p19
sS'valid_batch_size'
p20
I16
sS'validFreq'
p21
I4739
sS'learning_rate'
p22
F0.001
sS'batch_size'
p23
I16
sS'qu_split'
p24
I00
sS'relation_dict_num'
p25
I8000
sS'en_decode_type'
p26
S'ff'
p27
sS'lstm_end'
p28
g19
sS'dict_relation'
p29
S'datasets/dict/dict_relation.pkl'
p30
sS'relation_attention'
p31
S'target_attention'
p32
sS'dim'
p33
I100
sS'predicate_num'
p34
I150
sS'word'
p35
I00
sS'dim_word'
p36
I200
sS'one_layer'
p37
I00
sS'dict_word'
p38
S'datasets/dict/dict_word.pkl'
p39
sS'maxlen'
p40
I200
sS'validpath'
p41
(lp42
S'datasets/simpleqa/valid_5m.question'
p43
aS'datasets/simpleqa/valid_5m.subject'
p44
aS'datasets/simpleqa/valid_5m.relation'
p45
asS'r'
I5
sS'structure_number'
p46
I3
sS'character_dict_num'
p47
I200
sS'saveFreq'
p48
I4739
sS'relation_pattern'
p49
S'RWC'
p50
s.